ARM GAS  C:\Users\JFDuval\AppData\Local\Temp\ccoIVQYM.s 			page 1


   1              		.cpu cortex-m0
   2              		.fpu softvfp
   3              		.eabi_attribute 20, 1
   4              		.eabi_attribute 21, 1
   5              		.eabi_attribute 23, 3
   6              		.eabi_attribute 24, 1
   7              		.eabi_attribute 25, 1
   8              		.eabi_attribute 26, 1
   9              		.eabi_attribute 30, 6
  10              		.eabi_attribute 34, 0
  11              		.eabi_attribute 18, 4
  12              		.code	16
  13              		.file	"BLE_1_HAL_PVT.c"
  14              		.text
  15              	.Ltext0:
  16              		.cfi_sections	.debug_frame
  17              		.section	.text.CyBLE_Nvram_Write,"ax",%progbits
  18              		.align	2
  19              		.global	CyBLE_Nvram_Write
  20              		.code	16
  21              		.thumb_func
  22              		.type	CyBLE_Nvram_Write, %function
  23              	CyBLE_Nvram_Write:
  24              	.LFB2:
  25              		.file 1 ".\\Generated_Source\\PSoC4\\BLE_1_HAL_PVT.c"
   1:.\Generated_Source\PSoC4/BLE_1_HAL_PVT.c **** /*******************************************************************************
   2:.\Generated_Source\PSoC4/BLE_1_HAL_PVT.c **** * File Name: CYBLE_HAL_PVT.c
   3:.\Generated_Source\PSoC4/BLE_1_HAL_PVT.c **** * Version 1.20
   4:.\Generated_Source\PSoC4/BLE_1_HAL_PVT.c **** *
   5:.\Generated_Source\PSoC4/BLE_1_HAL_PVT.c **** * Description:
   6:.\Generated_Source\PSoC4/BLE_1_HAL_PVT.c **** *  This file contains the source code for the HAL section of the BLE component
   7:.\Generated_Source\PSoC4/BLE_1_HAL_PVT.c **** *
   8:.\Generated_Source\PSoC4/BLE_1_HAL_PVT.c **** ********************************************************************************
   9:.\Generated_Source\PSoC4/BLE_1_HAL_PVT.c **** * Copyright 2014-2015, Cypress Semiconductor Corporation.  All rights reserved.
  10:.\Generated_Source\PSoC4/BLE_1_HAL_PVT.c **** * You may use this file only in accordance with the license, terms, conditions,
  11:.\Generated_Source\PSoC4/BLE_1_HAL_PVT.c **** * disclaimers, and limitations in the end user license agreement accompanying
  12:.\Generated_Source\PSoC4/BLE_1_HAL_PVT.c **** * the software package with which this file was provided.
  13:.\Generated_Source\PSoC4/BLE_1_HAL_PVT.c **** *******************************************************************************/
  14:.\Generated_Source\PSoC4/BLE_1_HAL_PVT.c **** 
  15:.\Generated_Source\PSoC4/BLE_1_HAL_PVT.c **** #include "BLE_1_HAL_PVT.h"
  16:.\Generated_Source\PSoC4/BLE_1_HAL_PVT.c **** 
  17:.\Generated_Source\PSoC4/BLE_1_HAL_PVT.c **** 
  18:.\Generated_Source\PSoC4/BLE_1_HAL_PVT.c **** #if(CYBLE_MODE == CYBLE_HCI)
  19:.\Generated_Source\PSoC4/BLE_1_HAL_PVT.c **** 
  20:.\Generated_Source\PSoC4/BLE_1_HAL_PVT.c **** 
  21:.\Generated_Source\PSoC4/BLE_1_HAL_PVT.c **** /*******************************************************************************
  22:.\Generated_Source\PSoC4/BLE_1_HAL_PVT.c **** * Function Name: CyBLE_Uart_Start
  23:.\Generated_Source\PSoC4/BLE_1_HAL_PVT.c **** ********************************************************************************
  24:.\Generated_Source\PSoC4/BLE_1_HAL_PVT.c **** *
  25:.\Generated_Source\PSoC4/BLE_1_HAL_PVT.c **** * Summary:
  26:.\Generated_Source\PSoC4/BLE_1_HAL_PVT.c **** *  Enables the platform UART Tx and RX interrupts and then enables the UART
  27:.\Generated_Source\PSoC4/BLE_1_HAL_PVT.c **** *  component.
  28:.\Generated_Source\PSoC4/BLE_1_HAL_PVT.c **** *
  29:.\Generated_Source\PSoC4/BLE_1_HAL_PVT.c **** * Parameters:
  30:.\Generated_Source\PSoC4/BLE_1_HAL_PVT.c **** *  None
  31:.\Generated_Source\PSoC4/BLE_1_HAL_PVT.c **** *
  32:.\Generated_Source\PSoC4/BLE_1_HAL_PVT.c **** * Return:
ARM GAS  C:\Users\JFDuval\AppData\Local\Temp\ccoIVQYM.s 			page 2


  33:.\Generated_Source\PSoC4/BLE_1_HAL_PVT.c **** *  None
  34:.\Generated_Source\PSoC4/BLE_1_HAL_PVT.c **** *
  35:.\Generated_Source\PSoC4/BLE_1_HAL_PVT.c **** *******************************************************************************/
  36:.\Generated_Source\PSoC4/BLE_1_HAL_PVT.c **** void CyBLE_Uart_Start (void)
  37:.\Generated_Source\PSoC4/BLE_1_HAL_PVT.c **** {
  38:.\Generated_Source\PSoC4/BLE_1_HAL_PVT.c ****     /* Setup ISR */
  39:.\Generated_Source\PSoC4/BLE_1_HAL_PVT.c ****     BLE_1_uart_isr_StartEx(&CyBLE_Uart_Interrupt);
  40:.\Generated_Source\PSoC4/BLE_1_HAL_PVT.c **** 
  41:.\Generated_Source\PSoC4/BLE_1_HAL_PVT.c ****     BLE_1_HAL_Uart_Start();
  42:.\Generated_Source\PSoC4/BLE_1_HAL_PVT.c **** }
  43:.\Generated_Source\PSoC4/BLE_1_HAL_PVT.c **** 
  44:.\Generated_Source\PSoC4/BLE_1_HAL_PVT.c **** 
  45:.\Generated_Source\PSoC4/BLE_1_HAL_PVT.c **** /*******************************************************************************
  46:.\Generated_Source\PSoC4/BLE_1_HAL_PVT.c **** * Function Name: CyBLE_Uart_Stop
  47:.\Generated_Source\PSoC4/BLE_1_HAL_PVT.c **** ********************************************************************************
  48:.\Generated_Source\PSoC4/BLE_1_HAL_PVT.c **** *
  49:.\Generated_Source\PSoC4/BLE_1_HAL_PVT.c **** * Summary:
  50:.\Generated_Source\PSoC4/BLE_1_HAL_PVT.c **** *  Disables the UART, clears all pending interrupts and disables the UART Tx
  51:.\Generated_Source\PSoC4/BLE_1_HAL_PVT.c **** *  and RX interrupts. This will also empty out the FIFOs.
  52:.\Generated_Source\PSoC4/BLE_1_HAL_PVT.c **** *
  53:.\Generated_Source\PSoC4/BLE_1_HAL_PVT.c **** * Parameters:
  54:.\Generated_Source\PSoC4/BLE_1_HAL_PVT.c **** *  None
  55:.\Generated_Source\PSoC4/BLE_1_HAL_PVT.c **** *
  56:.\Generated_Source\PSoC4/BLE_1_HAL_PVT.c **** * Return:
  57:.\Generated_Source\PSoC4/BLE_1_HAL_PVT.c **** *  None
  58:.\Generated_Source\PSoC4/BLE_1_HAL_PVT.c **** *
  59:.\Generated_Source\PSoC4/BLE_1_HAL_PVT.c **** *******************************************************************************/
  60:.\Generated_Source\PSoC4/BLE_1_HAL_PVT.c **** void CyBLE_Uart_Stop (void)
  61:.\Generated_Source\PSoC4/BLE_1_HAL_PVT.c **** {
  62:.\Generated_Source\PSoC4/BLE_1_HAL_PVT.c ****     /* Stop interrupt and UART */
  63:.\Generated_Source\PSoC4/BLE_1_HAL_PVT.c ****     BLE_1_uart_isr_Stop();
  64:.\Generated_Source\PSoC4/BLE_1_HAL_PVT.c **** 
  65:.\Generated_Source\PSoC4/BLE_1_HAL_PVT.c ****     BLE_1_HAL_Uart_Stop();
  66:.\Generated_Source\PSoC4/BLE_1_HAL_PVT.c **** }
  67:.\Generated_Source\PSoC4/BLE_1_HAL_PVT.c **** 
  68:.\Generated_Source\PSoC4/BLE_1_HAL_PVT.c **** 
  69:.\Generated_Source\PSoC4/BLE_1_HAL_PVT.c **** /*******************************************************************************
  70:.\Generated_Source\PSoC4/BLE_1_HAL_PVT.c **** * Function Name: CyBLE_Uart_Transmit
  71:.\Generated_Source\PSoC4/BLE_1_HAL_PVT.c **** ********************************************************************************
  72:.\Generated_Source\PSoC4/BLE_1_HAL_PVT.c **** *
  73:.\Generated_Source\PSoC4/BLE_1_HAL_PVT.c **** * Summary:
  74:.\Generated_Source\PSoC4/BLE_1_HAL_PVT.c **** *  Sends the data to Uart Tx FIFO. The API handles data length up to the 
  75:.\Generated_Source\PSoC4/BLE_1_HAL_PVT.c **** *  supported Tx FIFO length of the uart hardware module.
  76:.\Generated_Source\PSoC4/BLE_1_HAL_PVT.c **** *
  77:.\Generated_Source\PSoC4/BLE_1_HAL_PVT.c **** * Parameters:
  78:.\Generated_Source\PSoC4/BLE_1_HAL_PVT.c **** *  uint8 *data: Pointer to the data to send through the UART
  79:.\Generated_Source\PSoC4/BLE_1_HAL_PVT.c **** *  uint8 length: the length of data to transmit in bytes
  80:.\Generated_Source\PSoC4/BLE_1_HAL_PVT.c **** *
  81:.\Generated_Source\PSoC4/BLE_1_HAL_PVT.c **** * Return:
  82:.\Generated_Source\PSoC4/BLE_1_HAL_PVT.c **** *  None
  83:.\Generated_Source\PSoC4/BLE_1_HAL_PVT.c **** *
  84:.\Generated_Source\PSoC4/BLE_1_HAL_PVT.c **** *******************************************************************************/
  85:.\Generated_Source\PSoC4/BLE_1_HAL_PVT.c **** void CyBLE_Uart_Transmit (const uint8 *dataBuf, uint8 length)
  86:.\Generated_Source\PSoC4/BLE_1_HAL_PVT.c **** {
  87:.\Generated_Source\PSoC4/BLE_1_HAL_PVT.c ****     BLE_1_HAL_Uart_SpiUartPutArray(dataBuf, (uint32)length);
  88:.\Generated_Source\PSoC4/BLE_1_HAL_PVT.c **** }
  89:.\Generated_Source\PSoC4/BLE_1_HAL_PVT.c **** 
ARM GAS  C:\Users\JFDuval\AppData\Local\Temp\ccoIVQYM.s 			page 3


  90:.\Generated_Source\PSoC4/BLE_1_HAL_PVT.c **** #endif /* (CYBLE_MODE == CYBLE_HCI) */
  91:.\Generated_Source\PSoC4/BLE_1_HAL_PVT.c **** 
  92:.\Generated_Source\PSoC4/BLE_1_HAL_PVT.c **** 
  93:.\Generated_Source\PSoC4/BLE_1_HAL_PVT.c **** /*******************************************************************************
  94:.\Generated_Source\PSoC4/BLE_1_HAL_PVT.c **** * Function Name: CyBLE_Nvram_Write
  95:.\Generated_Source\PSoC4/BLE_1_HAL_PVT.c **** ********************************************************************************
  96:.\Generated_Source\PSoC4/BLE_1_HAL_PVT.c **** *
  97:.\Generated_Source\PSoC4/BLE_1_HAL_PVT.c **** * Summary:
  98:.\Generated_Source\PSoC4/BLE_1_HAL_PVT.c **** *  This API writes the data to the NVRAM store. It will check the appropriate
  99:.\Generated_Source\PSoC4/BLE_1_HAL_PVT.c **** *  alignment of a start address and also perform an address range check based
 100:.\Generated_Source\PSoC4/BLE_1_HAL_PVT.c **** *  on the length before performing the write operation.
 101:.\Generated_Source\PSoC4/BLE_1_HAL_PVT.c **** *  This function performs memory compare and writes only row where there are new
 102:.\Generated_Source\PSoC4/BLE_1_HAL_PVT.c **** *  data to write.
 103:.\Generated_Source\PSoC4/BLE_1_HAL_PVT.c **** *
 104:.\Generated_Source\PSoC4/BLE_1_HAL_PVT.c **** * Parameters:
 105:.\Generated_Source\PSoC4/BLE_1_HAL_PVT.c **** *  const uint8 *buffer: Pointer to the buffer containing the data to be stored.
 106:.\Generated_Source\PSoC4/BLE_1_HAL_PVT.c **** *  const uint8 *varFlash: Pointer to the array or variable in the flash.
 107:.\Generated_Source\PSoC4/BLE_1_HAL_PVT.c **** *  uint16 length: the length of the data in bytes.
 108:.\Generated_Source\PSoC4/BLE_1_HAL_PVT.c **** *
 109:.\Generated_Source\PSoC4/BLE_1_HAL_PVT.c **** * Return:
 110:.\Generated_Source\PSoC4/BLE_1_HAL_PVT.c **** *  CYRET_SUCCESS    a successful write
 111:.\Generated_Source\PSoC4/BLE_1_HAL_PVT.c **** *  CYRET_BAD_PARAM  A request to write outside the flash boundary.
 112:.\Generated_Source\PSoC4/BLE_1_HAL_PVT.c **** *  CYRET_UNKNOWN    Other errors in writing the flash
 113:.\Generated_Source\PSoC4/BLE_1_HAL_PVT.c **** *
 114:.\Generated_Source\PSoC4/BLE_1_HAL_PVT.c **** * Side Effects:
 115:.\Generated_Source\PSoC4/BLE_1_HAL_PVT.c **** *  This API will automatically modify the clock settings for the device.
 116:.\Generated_Source\PSoC4/BLE_1_HAL_PVT.c **** *  Writing to flash requires changes to be done to the IMO (set to 48 MHz)
 117:.\Generated_Source\PSoC4/BLE_1_HAL_PVT.c **** *  and HFCLK (source set to IMO) settings. The configuration is restored before
 118:.\Generated_Source\PSoC4/BLE_1_HAL_PVT.c **** *  returning. This will impact the operation of most of the hardware in the
 119:.\Generated_Source\PSoC4/BLE_1_HAL_PVT.c **** *  device.
 120:.\Generated_Source\PSoC4/BLE_1_HAL_PVT.c **** *
 121:.\Generated_Source\PSoC4/BLE_1_HAL_PVT.c **** *******************************************************************************/
 122:.\Generated_Source\PSoC4/BLE_1_HAL_PVT.c **** cystatus CyBLE_Nvram_Write (const uint8 buffer[], const uint8 varFlash[], uint16 length)
 123:.\Generated_Source\PSoC4/BLE_1_HAL_PVT.c **** {
  26              		.loc 1 123 0
  27              		.cfi_startproc
  28 0000 80B5     		push	{r7, lr}
  29              		.cfi_def_cfa_offset 8
  30              		.cfi_offset 7, -8
  31              		.cfi_offset 14, -4
  32 0002 ACB0     		sub	sp, sp, #176
  33              		.cfi_def_cfa_offset 184
  34 0004 00AF     		add	r7, sp, #0
  35              		.cfi_def_cfa_register 7
  36 0006 F860     		str	r0, [r7, #12]
  37 0008 B960     		str	r1, [r7, #8]
  38 000a BB1D     		add	r3, r7, #6
  39 000c 1A80     		strh	r2, [r3]
 124:.\Generated_Source\PSoC4/BLE_1_HAL_PVT.c ****     uint8 writeBuffer[CY_FLASH_SIZEOF_ROW];
 125:.\Generated_Source\PSoC4/BLE_1_HAL_PVT.c ****     uint32 rowId;
 126:.\Generated_Source\PSoC4/BLE_1_HAL_PVT.c ****     uint32 dstIndex;
 127:.\Generated_Source\PSoC4/BLE_1_HAL_PVT.c ****     uint32 srcIndex = 0u;
  40              		.loc 1 127 0
  41 000e 0023     		mov	r3, #0
  42 0010 A420     		mov	r0, #164
  43 0012 C019     		add	r0, r0, r7
  44 0014 0360     		str	r3, [r0]
ARM GAS  C:\Users\JFDuval\AppData\Local\Temp\ccoIVQYM.s 			page 4


 128:.\Generated_Source\PSoC4/BLE_1_HAL_PVT.c ****     cystatus rc = CYRET_SUCCESS;
  45              		.loc 1 128 0
  46 0016 0023     		mov	r3, #0
  47 0018 A021     		mov	r1, #160
  48 001a C919     		add	r1, r1, r7
  49 001c 0B60     		str	r3, [r1]
 129:.\Generated_Source\PSoC4/BLE_1_HAL_PVT.c ****     uint32 eeOffset;
 130:.\Generated_Source\PSoC4/BLE_1_HAL_PVT.c ****     uint32 byteOffset;
 131:.\Generated_Source\PSoC4/BLE_1_HAL_PVT.c ****     uint32 rowsNotEqual;
 132:.\Generated_Source\PSoC4/BLE_1_HAL_PVT.c **** 
 133:.\Generated_Source\PSoC4/BLE_1_HAL_PVT.c ****     eeOffset = (uint32)varFlash;
  50              		.loc 1 133 0
  51 001e BB68     		ldr	r3, [r7, #8]
  52 0020 9422     		mov	r2, #148
  53 0022 D219     		add	r2, r2, r7
  54 0024 1360     		str	r3, [r2]
 134:.\Generated_Source\PSoC4/BLE_1_HAL_PVT.c **** 
 135:.\Generated_Source\PSoC4/BLE_1_HAL_PVT.c ****     /* Make sure, that varFlash[] points to ROM */
 136:.\Generated_Source\PSoC4/BLE_1_HAL_PVT.c ****     if ((eeOffset + length) < CYBLE_HAL_FLASH_END_ADDR)
  55              		.loc 1 136 0
  56 0026 BB1D     		add	r3, r7, #6
  57 0028 1A88     		ldrh	r2, [r3]
  58 002a 9420     		mov	r0, #148
  59 002c C019     		add	r0, r0, r7
  60 002e 0368     		ldr	r3, [r0]
  61 0030 D218     		add	r2, r2, r3
  62 0032 594B     		ldr	r3, .L14
  63 0034 9A42     		cmp	r2, r3
  64 0036 00D9     		bls	.LCB36
  65 0038 94E0     		b	.L2	@long jump
  66              	.LCB36:
 137:.\Generated_Source\PSoC4/BLE_1_HAL_PVT.c ****     {
 138:.\Generated_Source\PSoC4/BLE_1_HAL_PVT.c ****         rowId = eeOffset / CY_FLASH_SIZEOF_ROW;
  67              		.loc 1 138 0
  68 003a 9421     		mov	r1, #148
  69 003c C919     		add	r1, r1, r7
  70 003e 0B68     		ldr	r3, [r1]
  71 0040 DB09     		lsr	r3, r3, #7
  72 0042 AC22     		mov	r2, #172
  73 0044 D219     		add	r2, r2, r7
  74 0046 1360     		str	r3, [r2]
 139:.\Generated_Source\PSoC4/BLE_1_HAL_PVT.c ****         byteOffset = CY_FLASH_SIZEOF_ROW * rowId;
  75              		.loc 1 139 0
  76 0048 AC20     		mov	r0, #172
  77 004a C019     		add	r0, r0, r7
  78 004c 0368     		ldr	r3, [r0]
  79 004e DB01     		lsl	r3, r3, #7
  80 0050 9C21     		mov	r1, #156
  81 0052 C919     		add	r1, r1, r7
  82 0054 0B60     		str	r3, [r1]
 140:.\Generated_Source\PSoC4/BLE_1_HAL_PVT.c **** 
 141:.\Generated_Source\PSoC4/BLE_1_HAL_PVT.c ****         while ((srcIndex < length) && (CYRET_SUCCESS == rc))
  83              		.loc 1 141 0
  84 0056 77E0     		b	.L3
  85              	.L11:
 142:.\Generated_Source\PSoC4/BLE_1_HAL_PVT.c ****         {
 143:.\Generated_Source\PSoC4/BLE_1_HAL_PVT.c ****             rowsNotEqual = 0u;
ARM GAS  C:\Users\JFDuval\AppData\Local\Temp\ccoIVQYM.s 			page 5


  86              		.loc 1 143 0
  87 0058 0023     		mov	r3, #0
  88 005a 9822     		mov	r2, #152
  89 005c D219     		add	r2, r2, r7
  90 005e 1360     		str	r3, [r2]
 144:.\Generated_Source\PSoC4/BLE_1_HAL_PVT.c ****             /* Copy data to the write buffer either from the source buffer or from the flash */
 145:.\Generated_Source\PSoC4/BLE_1_HAL_PVT.c ****             for (dstIndex = 0u; dstIndex < CY_FLASH_SIZEOF_ROW; dstIndex++)
  91              		.loc 1 145 0
  92 0060 0023     		mov	r3, #0
  93 0062 A820     		mov	r0, #168
  94 0064 C019     		add	r0, r0, r7
  95 0066 0360     		str	r3, [r0]
  96 0068 50E0     		b	.L4
  97              	.L8:
 146:.\Generated_Source\PSoC4/BLE_1_HAL_PVT.c ****             {
 147:.\Generated_Source\PSoC4/BLE_1_HAL_PVT.c ****                 if ((byteOffset >= eeOffset) && (srcIndex < length))
  98              		.loc 1 147 0
  99 006a 9C21     		mov	r1, #156
 100 006c C919     		add	r1, r1, r7
 101 006e 0A68     		ldr	r2, [r1]
 102 0070 9420     		mov	r0, #148
 103 0072 C019     		add	r0, r0, r7
 104 0074 0368     		ldr	r3, [r0]
 105 0076 9A42     		cmp	r2, r3
 106 0078 2ED3     		bcc	.L5
 107              		.loc 1 147 0 is_stmt 0 discriminator 1
 108 007a BB1D     		add	r3, r7, #6
 109 007c 1A88     		ldrh	r2, [r3]
 110 007e A421     		mov	r1, #164
 111 0080 C919     		add	r1, r1, r7
 112 0082 0B68     		ldr	r3, [r1]
 113 0084 9A42     		cmp	r2, r3
 114 0086 27D9     		bls	.L5
 148:.\Generated_Source\PSoC4/BLE_1_HAL_PVT.c ****                 {
 149:.\Generated_Source\PSoC4/BLE_1_HAL_PVT.c ****                     /* Detect that row programming is required */
 150:.\Generated_Source\PSoC4/BLE_1_HAL_PVT.c ****                     if(writeBuffer[dstIndex] != buffer[srcIndex])
 115              		.loc 1 150 0 is_stmt 1
 116 0088 3A1C     		mov	r2, r7
 117 008a 1432     		add	r2, r2, #20
 118 008c A820     		mov	r0, #168
 119 008e C019     		add	r0, r0, r7
 120 0090 0368     		ldr	r3, [r0]
 121 0092 D318     		add	r3, r2, r3
 122 0094 1A78     		ldrb	r2, [r3]
 123 0096 F968     		ldr	r1, [r7, #12]
 124 0098 A420     		mov	r0, #164
 125 009a C019     		add	r0, r0, r7
 126 009c 0368     		ldr	r3, [r0]
 127 009e CB18     		add	r3, r1, r3
 128 00a0 1B78     		ldrb	r3, [r3]
 129 00a2 9A42     		cmp	r2, r3
 130 00a4 10D0     		beq	.L6
 151:.\Generated_Source\PSoC4/BLE_1_HAL_PVT.c ****                     {
 152:.\Generated_Source\PSoC4/BLE_1_HAL_PVT.c ****                         writeBuffer[dstIndex] = buffer[srcIndex];
 131              		.loc 1 152 0
 132 00a6 FA68     		ldr	r2, [r7, #12]
 133 00a8 A421     		mov	r1, #164
ARM GAS  C:\Users\JFDuval\AppData\Local\Temp\ccoIVQYM.s 			page 6


 134 00aa C919     		add	r1, r1, r7
 135 00ac 0B68     		ldr	r3, [r1]
 136 00ae D318     		add	r3, r2, r3
 137 00b0 1A78     		ldrb	r2, [r3]
 138 00b2 391C     		mov	r1, r7
 139 00b4 1431     		add	r1, r1, #20
 140 00b6 A820     		mov	r0, #168
 141 00b8 C019     		add	r0, r0, r7
 142 00ba 0368     		ldr	r3, [r0]
 143 00bc CB18     		add	r3, r1, r3
 144 00be 1A70     		strb	r2, [r3]
 153:.\Generated_Source\PSoC4/BLE_1_HAL_PVT.c ****                         rowsNotEqual = 1u;  
 145              		.loc 1 153 0
 146 00c0 0123     		mov	r3, #1
 147 00c2 9821     		mov	r1, #152
 148 00c4 C919     		add	r1, r1, r7
 149 00c6 0B60     		str	r3, [r1]
 150              	.L6:
 154:.\Generated_Source\PSoC4/BLE_1_HAL_PVT.c ****                     }
 155:.\Generated_Source\PSoC4/BLE_1_HAL_PVT.c ****                     srcIndex++;
 151              		.loc 1 155 0
 152 00c8 A422     		mov	r2, #164
 153 00ca D219     		add	r2, r2, r7
 154 00cc 1368     		ldr	r3, [r2]
 155 00ce 0133     		add	r3, r3, #1
 156 00d0 A420     		mov	r0, #164
 157 00d2 C019     		add	r0, r0, r7
 158 00d4 0360     		str	r3, [r0]
 159 00d6 0BE0     		b	.L7
 160              	.L5:
 156:.\Generated_Source\PSoC4/BLE_1_HAL_PVT.c ****                 }
 157:.\Generated_Source\PSoC4/BLE_1_HAL_PVT.c ****                 else
 158:.\Generated_Source\PSoC4/BLE_1_HAL_PVT.c ****                 {
 159:.\Generated_Source\PSoC4/BLE_1_HAL_PVT.c ****                     writeBuffer[dstIndex] = CY_GET_XTND_REG8(CYDEV_FLASH_BASE + byteOffset);
 161              		.loc 1 159 0
 162 00d8 9C21     		mov	r1, #156
 163 00da C919     		add	r1, r1, r7
 164 00dc 0B68     		ldr	r3, [r1]
 165 00de 1B78     		ldrb	r3, [r3]
 166 00e0 DAB2     		uxtb	r2, r3
 167 00e2 391C     		mov	r1, r7
 168 00e4 1431     		add	r1, r1, #20
 169 00e6 A820     		mov	r0, #168
 170 00e8 C019     		add	r0, r0, r7
 171 00ea 0368     		ldr	r3, [r0]
 172 00ec CB18     		add	r3, r1, r3
 173 00ee 1A70     		strb	r2, [r3]
 174              	.L7:
 160:.\Generated_Source\PSoC4/BLE_1_HAL_PVT.c ****                 }
 161:.\Generated_Source\PSoC4/BLE_1_HAL_PVT.c ****                 byteOffset++;
 175              		.loc 1 161 0
 176 00f0 9C21     		mov	r1, #156
 177 00f2 C919     		add	r1, r1, r7
 178 00f4 0B68     		ldr	r3, [r1]
 179 00f6 0133     		add	r3, r3, #1
 180 00f8 9C22     		mov	r2, #156
 181 00fa D219     		add	r2, r2, r7
ARM GAS  C:\Users\JFDuval\AppData\Local\Temp\ccoIVQYM.s 			page 7


 182 00fc 1360     		str	r3, [r2]
 145:.\Generated_Source\PSoC4/BLE_1_HAL_PVT.c ****             for (dstIndex = 0u; dstIndex < CY_FLASH_SIZEOF_ROW; dstIndex++)
 183              		.loc 1 145 0
 184 00fe A820     		mov	r0, #168
 185 0100 C019     		add	r0, r0, r7
 186 0102 0368     		ldr	r3, [r0]
 187 0104 0133     		add	r3, r3, #1
 188 0106 A821     		mov	r1, #168
 189 0108 C919     		add	r1, r1, r7
 190 010a 0B60     		str	r3, [r1]
 191              	.L4:
 145:.\Generated_Source\PSoC4/BLE_1_HAL_PVT.c ****             for (dstIndex = 0u; dstIndex < CY_FLASH_SIZEOF_ROW; dstIndex++)
 192              		.loc 1 145 0 is_stmt 0 discriminator 1
 193 010c A822     		mov	r2, #168
 194 010e D219     		add	r2, r2, r7
 195 0110 1368     		ldr	r3, [r2]
 196 0112 7F2B     		cmp	r3, #127
 197 0114 A9D9     		bls	.L8
 162:.\Generated_Source\PSoC4/BLE_1_HAL_PVT.c ****             }
 163:.\Generated_Source\PSoC4/BLE_1_HAL_PVT.c **** 
 164:.\Generated_Source\PSoC4/BLE_1_HAL_PVT.c ****             if(rowsNotEqual != 0u)
 198              		.loc 1 164 0 is_stmt 1
 199 0116 9820     		mov	r0, #152
 200 0118 C019     		add	r0, r0, r7
 201 011a 0368     		ldr	r3, [r0]
 202 011c 002B     		cmp	r3, #0
 203 011e 0CD0     		beq	.L9
 165:.\Generated_Source\PSoC4/BLE_1_HAL_PVT.c ****             {
 166:.\Generated_Source\PSoC4/BLE_1_HAL_PVT.c ****                 /* Write flash row */
 167:.\Generated_Source\PSoC4/BLE_1_HAL_PVT.c ****                 rc = CySysFlashWriteRow(rowId, writeBuffer);
 204              		.loc 1 167 0
 205 0120 AC21     		mov	r1, #172
 206 0122 C919     		add	r1, r1, r7
 207 0124 0A68     		ldr	r2, [r1]
 208 0126 3B1C     		mov	r3, r7
 209 0128 1433     		add	r3, r3, #20
 210 012a 101C     		mov	r0, r2
 211 012c 191C     		mov	r1, r3
 212 012e FFF7FEFF 		bl	CySysFlashWriteRow
 213 0132 031C     		mov	r3, r0
 214 0134 A022     		mov	r2, #160
 215 0136 D219     		add	r2, r2, r7
 216 0138 1360     		str	r3, [r2]
 217              	.L9:
 168:.\Generated_Source\PSoC4/BLE_1_HAL_PVT.c ****             }
 169:.\Generated_Source\PSoC4/BLE_1_HAL_PVT.c **** 
 170:.\Generated_Source\PSoC4/BLE_1_HAL_PVT.c ****             /* Go to the next row */
 171:.\Generated_Source\PSoC4/BLE_1_HAL_PVT.c ****             rowId++;
 218              		.loc 1 171 0
 219 013a AC20     		mov	r0, #172
 220 013c C019     		add	r0, r0, r7
 221 013e 0368     		ldr	r3, [r0]
 222 0140 0133     		add	r3, r3, #1
 223 0142 AC21     		mov	r1, #172
 224 0144 C919     		add	r1, r1, r7
 225 0146 0B60     		str	r3, [r1]
 226              	.L3:
ARM GAS  C:\Users\JFDuval\AppData\Local\Temp\ccoIVQYM.s 			page 8


 141:.\Generated_Source\PSoC4/BLE_1_HAL_PVT.c ****         while ((srcIndex < length) && (CYRET_SUCCESS == rc))
 227              		.loc 1 141 0 discriminator 1
 228 0148 BB1D     		add	r3, r7, #6
 229 014a 1A88     		ldrh	r2, [r3]
 230 014c A420     		mov	r0, #164
 231 014e C019     		add	r0, r0, r7
 232 0150 0368     		ldr	r3, [r0]
 233 0152 9A42     		cmp	r2, r3
 234 0154 0AD9     		bls	.L10
 141:.\Generated_Source\PSoC4/BLE_1_HAL_PVT.c ****         while ((srcIndex < length) && (CYRET_SUCCESS == rc))
 235              		.loc 1 141 0 is_stmt 0 discriminator 2
 236 0156 A021     		mov	r1, #160
 237 0158 C919     		add	r1, r1, r7
 238 015a 0B68     		ldr	r3, [r1]
 239 015c 002B     		cmp	r3, #0
 240 015e 00D1     		bne	.LCB201
 241 0160 7AE7     		b	.L11	@long jump
 242              	.LCB201:
 243 0162 03E0     		b	.L10
 244              	.L2:
 172:.\Generated_Source\PSoC4/BLE_1_HAL_PVT.c ****         }
 173:.\Generated_Source\PSoC4/BLE_1_HAL_PVT.c ****     }
 174:.\Generated_Source\PSoC4/BLE_1_HAL_PVT.c ****     else
 175:.\Generated_Source\PSoC4/BLE_1_HAL_PVT.c ****     {
 176:.\Generated_Source\PSoC4/BLE_1_HAL_PVT.c ****         rc = CYRET_BAD_PARAM;
 245              		.loc 1 176 0 is_stmt 1
 246 0164 0123     		mov	r3, #1
 247 0166 A022     		mov	r2, #160
 248 0168 D219     		add	r2, r2, r7
 249 016a 1360     		str	r3, [r2]
 250              	.L10:
 177:.\Generated_Source\PSoC4/BLE_1_HAL_PVT.c ****     }
 178:.\Generated_Source\PSoC4/BLE_1_HAL_PVT.c **** 
 179:.\Generated_Source\PSoC4/BLE_1_HAL_PVT.c ****     /* Mask return codes from flash, if they are not supported */
 180:.\Generated_Source\PSoC4/BLE_1_HAL_PVT.c ****     if ((CYRET_SUCCESS != rc) && (CYRET_BAD_PARAM != rc))
 251              		.loc 1 180 0
 252 016c A020     		mov	r0, #160
 253 016e C019     		add	r0, r0, r7
 254 0170 0368     		ldr	r3, [r0]
 255 0172 002B     		cmp	r3, #0
 256 0174 09D0     		beq	.L12
 257              		.loc 1 180 0 is_stmt 0 discriminator 1
 258 0176 A021     		mov	r1, #160
 259 0178 C919     		add	r1, r1, r7
 260 017a 0B68     		ldr	r3, [r1]
 261 017c 012B     		cmp	r3, #1
 262 017e 04D0     		beq	.L12
 181:.\Generated_Source\PSoC4/BLE_1_HAL_PVT.c ****     {
 182:.\Generated_Source\PSoC4/BLE_1_HAL_PVT.c ****         rc = CYRET_UNKNOWN;
 263              		.loc 1 182 0 is_stmt 1
 264 0180 0123     		mov	r3, #1
 265 0182 5B42     		neg	r3, r3
 266 0184 A022     		mov	r2, #160
 267 0186 D219     		add	r2, r2, r7
 268 0188 1360     		str	r3, [r2]
 269              	.L12:
 183:.\Generated_Source\PSoC4/BLE_1_HAL_PVT.c ****     }
ARM GAS  C:\Users\JFDuval\AppData\Local\Temp\ccoIVQYM.s 			page 9


 184:.\Generated_Source\PSoC4/BLE_1_HAL_PVT.c ****     
 185:.\Generated_Source\PSoC4/BLE_1_HAL_PVT.c ****     return (rc);
 270              		.loc 1 185 0
 271 018a A020     		mov	r0, #160
 272 018c C019     		add	r0, r0, r7
 273 018e 0368     		ldr	r3, [r0]
 186:.\Generated_Source\PSoC4/BLE_1_HAL_PVT.c **** }
 274              		.loc 1 186 0
 275 0190 181C     		mov	r0, r3
 276 0192 BD46     		mov	sp, r7
 277 0194 2CB0     		add	sp, sp, #176
 278              		@ sp needed
 279 0196 80BD     		pop	{r7, pc}
 280              	.L15:
 281              		.align	2
 282              	.L14:
 283 0198 FFFF0100 		.word	131071
 284              		.cfi_endproc
 285              	.LFE2:
 286              		.size	CyBLE_Nvram_Write, .-CyBLE_Nvram_Write
 287              		.section	.text.CyBLE_Nvram_Erase,"ax",%progbits
 288              		.align	2
 289              		.global	CyBLE_Nvram_Erase
 290              		.code	16
 291              		.thumb_func
 292              		.type	CyBLE_Nvram_Erase, %function
 293              	CyBLE_Nvram_Erase:
 294              	.LFB3:
 187:.\Generated_Source\PSoC4/BLE_1_HAL_PVT.c **** 
 188:.\Generated_Source\PSoC4/BLE_1_HAL_PVT.c **** /*******************************************************************************
 189:.\Generated_Source\PSoC4/BLE_1_HAL_PVT.c **** * Function Name: CyBLE_Nvram_Erase
 190:.\Generated_Source\PSoC4/BLE_1_HAL_PVT.c **** ********************************************************************************
 191:.\Generated_Source\PSoC4/BLE_1_HAL_PVT.c **** *
 192:.\Generated_Source\PSoC4/BLE_1_HAL_PVT.c **** * Summary:
 193:.\Generated_Source\PSoC4/BLE_1_HAL_PVT.c **** *  This API erases the data from the NVRAM store. This API will perform an 
 194:.\Generated_Source\PSoC4/BLE_1_HAL_PVT.c **** *  address range check based on the length before performing erase operation.
 195:.\Generated_Source\PSoC4/BLE_1_HAL_PVT.c **** *
 196:.\Generated_Source\PSoC4/BLE_1_HAL_PVT.c **** * Parameters:
 197:.\Generated_Source\PSoC4/BLE_1_HAL_PVT.c **** *  const uint8 *varFlash: the pointer to the array or variable in the flash.
 198:.\Generated_Source\PSoC4/BLE_1_HAL_PVT.c **** *  uint16 length: the length of the data in bytes.
 199:.\Generated_Source\PSoC4/BLE_1_HAL_PVT.c **** *
 200:.\Generated_Source\PSoC4/BLE_1_HAL_PVT.c **** * Return:
 201:.\Generated_Source\PSoC4/BLE_1_HAL_PVT.c **** *  CYRET_SUCCESS    a successful write
 202:.\Generated_Source\PSoC4/BLE_1_HAL_PVT.c **** *  CYRET_BAD_PARAM  A request to write outside the flash boundary.
 203:.\Generated_Source\PSoC4/BLE_1_HAL_PVT.c **** *  CYRET_UNKNOWN    Other errors in writing the flash
 204:.\Generated_Source\PSoC4/BLE_1_HAL_PVT.c **** *
 205:.\Generated_Source\PSoC4/BLE_1_HAL_PVT.c **** *******************************************************************************/
 206:.\Generated_Source\PSoC4/BLE_1_HAL_PVT.c **** cystatus CyBLE_Nvram_Erase (const uint8 *varFlash, uint16 length)
 207:.\Generated_Source\PSoC4/BLE_1_HAL_PVT.c **** {
 295              		.loc 1 207 0
 296              		.cfi_startproc
 297 0000 80B5     		push	{r7, lr}
 298              		.cfi_def_cfa_offset 8
 299              		.cfi_offset 7, -8
 300              		.cfi_offset 14, -4
 301 0002 A6B0     		sub	sp, sp, #152
 302              		.cfi_def_cfa_offset 160
ARM GAS  C:\Users\JFDuval\AppData\Local\Temp\ccoIVQYM.s 			page 10


 303 0004 00AF     		add	r7, sp, #0
 304              		.cfi_def_cfa_register 7
 305 0006 7860     		str	r0, [r7, #4]
 306 0008 0A1C     		mov	r2, r1
 307 000a BB1C     		add	r3, r7, #2
 308 000c 1A80     		strh	r2, [r3]
 208:.\Generated_Source\PSoC4/BLE_1_HAL_PVT.c ****     const uint8 *tempFlash;
 209:.\Generated_Source\PSoC4/BLE_1_HAL_PVT.c ****     uint8 flashBuffer[CY_FLASH_SIZEOF_ROW] = {0u};
 309              		.loc 1 209 0
 310 000e 3B1C     		mov	r3, r7
 311 0010 0C33     		add	r3, r3, #12
 312 0012 1A1C     		mov	r2, r3
 313 0014 8023     		mov	r3, #128
 314 0016 101C     		mov	r0, r2
 315 0018 0021     		mov	r1, #0
 316 001a 1A1C     		mov	r2, r3
 317 001c FFF7FEFF 		bl	memset
 210:.\Generated_Source\PSoC4/BLE_1_HAL_PVT.c ****     uint16 lengthFlash;
 211:.\Generated_Source\PSoC4/BLE_1_HAL_PVT.c ****     uint16 lengthRemaining;
 212:.\Generated_Source\PSoC4/BLE_1_HAL_PVT.c ****     cystatus rc = CYRET_UNKNOWN;
 318              		.loc 1 212 0
 319 0020 0123     		mov	r3, #1
 320 0022 5B42     		neg	r3, r3
 321 0024 8C22     		mov	r2, #140
 322 0026 D219     		add	r2, r2, r7
 323 0028 1360     		str	r3, [r2]
 213:.\Generated_Source\PSoC4/BLE_1_HAL_PVT.c **** 
 214:.\Generated_Source\PSoC4/BLE_1_HAL_PVT.c ****     tempFlash = varFlash;
 324              		.loc 1 214 0
 325 002a 7B68     		ldr	r3, [r7, #4]
 326 002c 9422     		mov	r2, #148
 327 002e D219     		add	r2, r2, r7
 328 0030 1360     		str	r3, [r2]
 215:.\Generated_Source\PSoC4/BLE_1_HAL_PVT.c ****     lengthRemaining = length;
 329              		.loc 1 215 0
 330 0032 3B1C     		mov	r3, r7
 331 0034 9033     		add	r3, r3, #144
 332 0036 BA1C     		add	r2, r7, #2
 333 0038 1288     		ldrh	r2, [r2]
 334 003a 1A80     		strh	r2, [r3]
 216:.\Generated_Source\PSoC4/BLE_1_HAL_PVT.c **** 
 217:.\Generated_Source\PSoC4/BLE_1_HAL_PVT.c ****     while(lengthRemaining > 0u)
 335              		.loc 1 217 0
 336 003c 37E0     		b	.L17
 337              	.L22:
 218:.\Generated_Source\PSoC4/BLE_1_HAL_PVT.c ****     {
 219:.\Generated_Source\PSoC4/BLE_1_HAL_PVT.c ****         if(lengthRemaining < CY_FLASH_SIZEOF_ROW)
 338              		.loc 1 219 0
 339 003e 3B1C     		mov	r3, r7
 340 0040 9033     		add	r3, r3, #144
 341 0042 1B88     		ldrh	r3, [r3]
 342 0044 7F2B     		cmp	r3, #127
 343 0046 06D8     		bhi	.L18
 220:.\Generated_Source\PSoC4/BLE_1_HAL_PVT.c ****         {
 221:.\Generated_Source\PSoC4/BLE_1_HAL_PVT.c ****             lengthFlash = lengthRemaining;
 344              		.loc 1 221 0
 345 0048 3B1C     		mov	r3, r7
ARM GAS  C:\Users\JFDuval\AppData\Local\Temp\ccoIVQYM.s 			page 11


 346 004a 9233     		add	r3, r3, #146
 347 004c 3A1C     		mov	r2, r7
 348 004e 9032     		add	r2, r2, #144
 349 0050 1288     		ldrh	r2, [r2]
 350 0052 1A80     		strh	r2, [r3]
 351 0054 03E0     		b	.L19
 352              	.L18:
 222:.\Generated_Source\PSoC4/BLE_1_HAL_PVT.c ****         }
 223:.\Generated_Source\PSoC4/BLE_1_HAL_PVT.c ****         else
 224:.\Generated_Source\PSoC4/BLE_1_HAL_PVT.c ****         {
 225:.\Generated_Source\PSoC4/BLE_1_HAL_PVT.c ****             lengthFlash = CY_FLASH_SIZEOF_ROW;
 353              		.loc 1 225 0
 354 0056 3B1C     		mov	r3, r7
 355 0058 9233     		add	r3, r3, #146
 356 005a 8022     		mov	r2, #128
 357 005c 1A80     		strh	r2, [r3]
 358              	.L19:
 226:.\Generated_Source\PSoC4/BLE_1_HAL_PVT.c ****         }
 227:.\Generated_Source\PSoC4/BLE_1_HAL_PVT.c ****         rc = CyBLE_Nvram_Write(flashBuffer, tempFlash, lengthFlash);
 359              		.loc 1 227 0
 360 005e 391C     		mov	r1, r7
 361 0060 0C31     		add	r1, r1, #12
 362 0062 9423     		mov	r3, #148
 363 0064 DB19     		add	r3, r3, r7
 364 0066 1A68     		ldr	r2, [r3]
 365 0068 3B1C     		mov	r3, r7
 366 006a 9233     		add	r3, r3, #146
 367 006c 1B88     		ldrh	r3, [r3]
 368 006e 081C     		mov	r0, r1
 369 0070 111C     		mov	r1, r2
 370 0072 1A1C     		mov	r2, r3
 371 0074 FFF7FEFF 		bl	CyBLE_Nvram_Write
 372 0078 031C     		mov	r3, r0
 373 007a 8C22     		mov	r2, #140
 374 007c D219     		add	r2, r2, r7
 375 007e 1360     		str	r3, [r2]
 228:.\Generated_Source\PSoC4/BLE_1_HAL_PVT.c ****         if(rc != CYRET_SUCCESS)
 376              		.loc 1 228 0
 377 0080 8C22     		mov	r2, #140
 378 0082 D219     		add	r2, r2, r7
 379 0084 1368     		ldr	r3, [r2]
 380 0086 002B     		cmp	r3, #0
 381 0088 00D0     		beq	.L20
 229:.\Generated_Source\PSoC4/BLE_1_HAL_PVT.c ****         {
 230:.\Generated_Source\PSoC4/BLE_1_HAL_PVT.c ****             break;
 382              		.loc 1 230 0
 383 008a 15E0     		b	.L21
 384              	.L20:
 231:.\Generated_Source\PSoC4/BLE_1_HAL_PVT.c ****         }
 232:.\Generated_Source\PSoC4/BLE_1_HAL_PVT.c ****         tempFlash += CY_FLASH_SIZEOF_ROW;
 385              		.loc 1 232 0
 386 008c 9422     		mov	r2, #148
 387 008e D219     		add	r2, r2, r7
 388 0090 1368     		ldr	r3, [r2]
 389 0092 8033     		add	r3, r3, #128
 390 0094 9422     		mov	r2, #148
 391 0096 D219     		add	r2, r2, r7
ARM GAS  C:\Users\JFDuval\AppData\Local\Temp\ccoIVQYM.s 			page 12


 392 0098 1360     		str	r3, [r2]
 233:.\Generated_Source\PSoC4/BLE_1_HAL_PVT.c ****         lengthRemaining -= lengthFlash;
 393              		.loc 1 233 0
 394 009a 3B1C     		mov	r3, r7
 395 009c 9033     		add	r3, r3, #144
 396 009e 391C     		mov	r1, r7
 397 00a0 9031     		add	r1, r1, #144
 398 00a2 3A1C     		mov	r2, r7
 399 00a4 9232     		add	r2, r2, #146
 400 00a6 0988     		ldrh	r1, [r1]
 401 00a8 1288     		ldrh	r2, [r2]
 402 00aa 8A1A     		sub	r2, r1, r2
 403 00ac 1A80     		strh	r2, [r3]
 404              	.L17:
 217:.\Generated_Source\PSoC4/BLE_1_HAL_PVT.c ****     while(lengthRemaining > 0u)
 405              		.loc 1 217 0 discriminator 1
 406 00ae 3B1C     		mov	r3, r7
 407 00b0 9033     		add	r3, r3, #144
 408 00b2 1B88     		ldrh	r3, [r3]
 409 00b4 002B     		cmp	r3, #0
 410 00b6 C2D1     		bne	.L22
 411              	.L21:
 234:.\Generated_Source\PSoC4/BLE_1_HAL_PVT.c ****     }
 235:.\Generated_Source\PSoC4/BLE_1_HAL_PVT.c **** 
 236:.\Generated_Source\PSoC4/BLE_1_HAL_PVT.c ****     return rc;
 412              		.loc 1 236 0
 413 00b8 8C22     		mov	r2, #140
 414 00ba D219     		add	r2, r2, r7
 415 00bc 1368     		ldr	r3, [r2]
 237:.\Generated_Source\PSoC4/BLE_1_HAL_PVT.c **** }
 416              		.loc 1 237 0
 417 00be 181C     		mov	r0, r3
 418 00c0 BD46     		mov	sp, r7
 419 00c2 26B0     		add	sp, sp, #152
 420              		@ sp needed
 421 00c4 80BD     		pop	{r7, pc}
 422              		.cfi_endproc
 423              	.LFE3:
 424              		.size	CyBLE_Nvram_Erase, .-CyBLE_Nvram_Erase
 425 00c6 C046     		.section	.text.CyBLE_Bless_LlRegRead,"ax",%progbits
 426              		.align	2
 427              		.global	CyBLE_Bless_LlRegRead
 428              		.code	16
 429              		.thumb_func
 430              		.type	CyBLE_Bless_LlRegRead, %function
 431              	CyBLE_Bless_LlRegRead:
 432              	.LFB4:
 238:.\Generated_Source\PSoC4/BLE_1_HAL_PVT.c **** 
 239:.\Generated_Source\PSoC4/BLE_1_HAL_PVT.c **** 
 240:.\Generated_Source\PSoC4/BLE_1_HAL_PVT.c **** /*******************************************************************************
 241:.\Generated_Source\PSoC4/BLE_1_HAL_PVT.c **** * Function Name: CyBLE_Bless_LlRegRead
 242:.\Generated_Source\PSoC4/BLE_1_HAL_PVT.c **** ********************************************************************************
 243:.\Generated_Source\PSoC4/BLE_1_HAL_PVT.c **** *
 244:.\Generated_Source\PSoC4/BLE_1_HAL_PVT.c **** * Summary:
 245:.\Generated_Source\PSoC4/BLE_1_HAL_PVT.c **** *  This API reads the content of the BLESS Link Layer register from the stack.
 246:.\Generated_Source\PSoC4/BLE_1_HAL_PVT.c **** *
 247:.\Generated_Source\PSoC4/BLE_1_HAL_PVT.c **** * Parameters:
ARM GAS  C:\Users\JFDuval\AppData\Local\Temp\ccoIVQYM.s 			page 13


 248:.\Generated_Source\PSoC4/BLE_1_HAL_PVT.c **** *  uint32 *blessAddr: the pointer to the BLESS link layer address.
 249:.\Generated_Source\PSoC4/BLE_1_HAL_PVT.c **** *  uint16 *regValue: the pointer to the buffer space to copy the read value.
 250:.\Generated_Source\PSoC4/BLE_1_HAL_PVT.c **** *
 251:.\Generated_Source\PSoC4/BLE_1_HAL_PVT.c **** * Return:
 252:.\Generated_Source\PSoC4/BLE_1_HAL_PVT.c **** *  None
 253:.\Generated_Source\PSoC4/BLE_1_HAL_PVT.c **** *
 254:.\Generated_Source\PSoC4/BLE_1_HAL_PVT.c **** *******************************************************************************/
 255:.\Generated_Source\PSoC4/BLE_1_HAL_PVT.c **** void CyBLE_Bless_LlRegRead (const reg32 *blessAddr, uint16 *regValue)
 256:.\Generated_Source\PSoC4/BLE_1_HAL_PVT.c **** {
 433              		.loc 1 256 0
 434              		.cfi_startproc
 435 0000 80B5     		push	{r7, lr}
 436              		.cfi_def_cfa_offset 8
 437              		.cfi_offset 7, -8
 438              		.cfi_offset 14, -4
 439 0002 82B0     		sub	sp, sp, #8
 440              		.cfi_def_cfa_offset 16
 441 0004 00AF     		add	r7, sp, #0
 442              		.cfi_def_cfa_register 7
 443 0006 7860     		str	r0, [r7, #4]
 444 0008 3960     		str	r1, [r7]
 257:.\Generated_Source\PSoC4/BLE_1_HAL_PVT.c ****     *regValue = (uint16)CY_GET_REG32(blessAddr);
 445              		.loc 1 257 0
 446 000a 7B68     		ldr	r3, [r7, #4]
 447 000c 1B68     		ldr	r3, [r3]
 448 000e 9AB2     		uxth	r2, r3
 449 0010 3B68     		ldr	r3, [r7]
 450 0012 1A80     		strh	r2, [r3]
 258:.\Generated_Source\PSoC4/BLE_1_HAL_PVT.c **** }
 451              		.loc 1 258 0
 452 0014 BD46     		mov	sp, r7
 453 0016 02B0     		add	sp, sp, #8
 454              		@ sp needed
 455 0018 80BD     		pop	{r7, pc}
 456              		.cfi_endproc
 457              	.LFE4:
 458              		.size	CyBLE_Bless_LlRegRead, .-CyBLE_Bless_LlRegRead
 459 001a C046     		.section	.text.CyBLE_Bless_LlRegWrite,"ax",%progbits
 460              		.align	2
 461              		.global	CyBLE_Bless_LlRegWrite
 462              		.code	16
 463              		.thumb_func
 464              		.type	CyBLE_Bless_LlRegWrite, %function
 465              	CyBLE_Bless_LlRegWrite:
 466              	.LFB5:
 259:.\Generated_Source\PSoC4/BLE_1_HAL_PVT.c **** 
 260:.\Generated_Source\PSoC4/BLE_1_HAL_PVT.c **** 
 261:.\Generated_Source\PSoC4/BLE_1_HAL_PVT.c **** /*******************************************************************************
 262:.\Generated_Source\PSoC4/BLE_1_HAL_PVT.c **** * Function Name: CyBLE_Bless_LlRegWrite
 263:.\Generated_Source\PSoC4/BLE_1_HAL_PVT.c **** ********************************************************************************
 264:.\Generated_Source\PSoC4/BLE_1_HAL_PVT.c **** *
 265:.\Generated_Source\PSoC4/BLE_1_HAL_PVT.c **** * Summary:
 266:.\Generated_Source\PSoC4/BLE_1_HAL_PVT.c **** *  This API writes to the BLESS Link Layer register from the stack.
 267:.\Generated_Source\PSoC4/BLE_1_HAL_PVT.c **** *
 268:.\Generated_Source\PSoC4/BLE_1_HAL_PVT.c **** * Parameters:
 269:.\Generated_Source\PSoC4/BLE_1_HAL_PVT.c **** *  uint32 *blessAddr: the pointer to the BLESS link layer address.
 270:.\Generated_Source\PSoC4/BLE_1_HAL_PVT.c **** *  uint16 regValue: the pointer to the value to be written to the BLESS LL reg.
ARM GAS  C:\Users\JFDuval\AppData\Local\Temp\ccoIVQYM.s 			page 14


 271:.\Generated_Source\PSoC4/BLE_1_HAL_PVT.c **** *
 272:.\Generated_Source\PSoC4/BLE_1_HAL_PVT.c **** * Return:
 273:.\Generated_Source\PSoC4/BLE_1_HAL_PVT.c **** *  None
 274:.\Generated_Source\PSoC4/BLE_1_HAL_PVT.c **** *
 275:.\Generated_Source\PSoC4/BLE_1_HAL_PVT.c **** *******************************************************************************/
 276:.\Generated_Source\PSoC4/BLE_1_HAL_PVT.c **** void CyBLE_Bless_LlRegWrite (reg32 *blessAddr, const uint16 regValue)
 277:.\Generated_Source\PSoC4/BLE_1_HAL_PVT.c **** {
 467              		.loc 1 277 0
 468              		.cfi_startproc
 469 0000 80B5     		push	{r7, lr}
 470              		.cfi_def_cfa_offset 8
 471              		.cfi_offset 7, -8
 472              		.cfi_offset 14, -4
 473 0002 82B0     		sub	sp, sp, #8
 474              		.cfi_def_cfa_offset 16
 475 0004 00AF     		add	r7, sp, #0
 476              		.cfi_def_cfa_register 7
 477 0006 7860     		str	r0, [r7, #4]
 478 0008 0A1C     		mov	r2, r1
 479 000a BB1C     		add	r3, r7, #2
 480 000c 1A80     		strh	r2, [r3]
 278:.\Generated_Source\PSoC4/BLE_1_HAL_PVT.c ****     CY_SET_REG32(blessAddr, regValue);
 481              		.loc 1 278 0
 482 000e BB1C     		add	r3, r7, #2
 483 0010 1A88     		ldrh	r2, [r3]
 484 0012 7B68     		ldr	r3, [r7, #4]
 485 0014 1A60     		str	r2, [r3]
 279:.\Generated_Source\PSoC4/BLE_1_HAL_PVT.c **** }
 486              		.loc 1 279 0
 487 0016 BD46     		mov	sp, r7
 488 0018 02B0     		add	sp, sp, #8
 489              		@ sp needed
 490 001a 80BD     		pop	{r7, pc}
 491              		.cfi_endproc
 492              	.LFE5:
 493              		.size	CyBLE_Bless_LlRegWrite, .-CyBLE_Bless_LlRegWrite
 494              		.section	.text.CyBLE_Bless_RfRegRead,"ax",%progbits
 495              		.align	2
 496              		.global	CyBLE_Bless_RfRegRead
 497              		.code	16
 498              		.thumb_func
 499              		.type	CyBLE_Bless_RfRegRead, %function
 500              	CyBLE_Bless_RfRegRead:
 501              	.LFB6:
 280:.\Generated_Source\PSoC4/BLE_1_HAL_PVT.c **** 
 281:.\Generated_Source\PSoC4/BLE_1_HAL_PVT.c **** 
 282:.\Generated_Source\PSoC4/BLE_1_HAL_PVT.c **** /*******************************************************************************
 283:.\Generated_Source\PSoC4/BLE_1_HAL_PVT.c **** * Function Name: CyBLE_Bless_RfRegRead
 284:.\Generated_Source\PSoC4/BLE_1_HAL_PVT.c **** ********************************************************************************
 285:.\Generated_Source\PSoC4/BLE_1_HAL_PVT.c **** *
 286:.\Generated_Source\PSoC4/BLE_1_HAL_PVT.c **** * Summary:
 287:.\Generated_Source\PSoC4/BLE_1_HAL_PVT.c **** *  This API reads the content of the BLESS RF register from the stack.
 288:.\Generated_Source\PSoC4/BLE_1_HAL_PVT.c **** *
 289:.\Generated_Source\PSoC4/BLE_1_HAL_PVT.c **** * Parameters:
 290:.\Generated_Source\PSoC4/BLE_1_HAL_PVT.c **** *  uint32 *blessAddr: the pointer to BLESS RF register address.
 291:.\Generated_Source\PSoC4/BLE_1_HAL_PVT.c **** *  uint16 *regValue: the pointer to the buffer space to copy the read value.
 292:.\Generated_Source\PSoC4/BLE_1_HAL_PVT.c **** *
ARM GAS  C:\Users\JFDuval\AppData\Local\Temp\ccoIVQYM.s 			page 15


 293:.\Generated_Source\PSoC4/BLE_1_HAL_PVT.c **** * Return:
 294:.\Generated_Source\PSoC4/BLE_1_HAL_PVT.c **** *  None
 295:.\Generated_Source\PSoC4/BLE_1_HAL_PVT.c **** *
 296:.\Generated_Source\PSoC4/BLE_1_HAL_PVT.c **** *******************************************************************************/
 297:.\Generated_Source\PSoC4/BLE_1_HAL_PVT.c **** void CyBLE_Bless_RfRegRead (const reg32 *blessAddr, uint16 *regValue)
 298:.\Generated_Source\PSoC4/BLE_1_HAL_PVT.c **** {
 502              		.loc 1 298 0
 503              		.cfi_startproc
 504 0000 80B5     		push	{r7, lr}
 505              		.cfi_def_cfa_offset 8
 506              		.cfi_offset 7, -8
 507              		.cfi_offset 14, -4
 508 0002 82B0     		sub	sp, sp, #8
 509              		.cfi_def_cfa_offset 16
 510 0004 00AF     		add	r7, sp, #0
 511              		.cfi_def_cfa_register 7
 512 0006 7860     		str	r0, [r7, #4]
 513 0008 3960     		str	r1, [r7]
 299:.\Generated_Source\PSoC4/BLE_1_HAL_PVT.c ****     *regValue = (uint16)CY_GET_REG32(blessAddr);
 514              		.loc 1 299 0
 515 000a 7B68     		ldr	r3, [r7, #4]
 516 000c 1B68     		ldr	r3, [r3]
 517 000e 9AB2     		uxth	r2, r3
 518 0010 3B68     		ldr	r3, [r7]
 519 0012 1A80     		strh	r2, [r3]
 300:.\Generated_Source\PSoC4/BLE_1_HAL_PVT.c **** }
 520              		.loc 1 300 0
 521 0014 BD46     		mov	sp, r7
 522 0016 02B0     		add	sp, sp, #8
 523              		@ sp needed
 524 0018 80BD     		pop	{r7, pc}
 525              		.cfi_endproc
 526              	.LFE6:
 527              		.size	CyBLE_Bless_RfRegRead, .-CyBLE_Bless_RfRegRead
 528 001a C046     		.section	.text.CyBLE_Bless_RfRegWrite,"ax",%progbits
 529              		.align	2
 530              		.global	CyBLE_Bless_RfRegWrite
 531              		.code	16
 532              		.thumb_func
 533              		.type	CyBLE_Bless_RfRegWrite, %function
 534              	CyBLE_Bless_RfRegWrite:
 535              	.LFB7:
 301:.\Generated_Source\PSoC4/BLE_1_HAL_PVT.c **** 
 302:.\Generated_Source\PSoC4/BLE_1_HAL_PVT.c **** 
 303:.\Generated_Source\PSoC4/BLE_1_HAL_PVT.c **** /*******************************************************************************
 304:.\Generated_Source\PSoC4/BLE_1_HAL_PVT.c **** * Function Name: CyBLE_Bless_RfRegWrite
 305:.\Generated_Source\PSoC4/BLE_1_HAL_PVT.c **** ********************************************************************************
 306:.\Generated_Source\PSoC4/BLE_1_HAL_PVT.c **** *
 307:.\Generated_Source\PSoC4/BLE_1_HAL_PVT.c **** * Summary:
 308:.\Generated_Source\PSoC4/BLE_1_HAL_PVT.c **** *  This API writes to the BLESS RF register from the stack.
 309:.\Generated_Source\PSoC4/BLE_1_HAL_PVT.c **** *
 310:.\Generated_Source\PSoC4/BLE_1_HAL_PVT.c **** * Parameters:
 311:.\Generated_Source\PSoC4/BLE_1_HAL_PVT.c **** *  uint32 *blessAddr: the pointer to the BLESS RF address.
 312:.\Generated_Source\PSoC4/BLE_1_HAL_PVT.c **** *  uint16 regValue: the pointer to the value to be written to the BLESS RF reg.
 313:.\Generated_Source\PSoC4/BLE_1_HAL_PVT.c **** *
 314:.\Generated_Source\PSoC4/BLE_1_HAL_PVT.c **** * Return:
 315:.\Generated_Source\PSoC4/BLE_1_HAL_PVT.c **** *  None
ARM GAS  C:\Users\JFDuval\AppData\Local\Temp\ccoIVQYM.s 			page 16


 316:.\Generated_Source\PSoC4/BLE_1_HAL_PVT.c **** *
 317:.\Generated_Source\PSoC4/BLE_1_HAL_PVT.c **** *******************************************************************************/
 318:.\Generated_Source\PSoC4/BLE_1_HAL_PVT.c **** void CyBLE_Bless_RfRegWrite (reg32 *blessAddr, const uint16 regValue)
 319:.\Generated_Source\PSoC4/BLE_1_HAL_PVT.c **** {
 536              		.loc 1 319 0
 537              		.cfi_startproc
 538 0000 80B5     		push	{r7, lr}
 539              		.cfi_def_cfa_offset 8
 540              		.cfi_offset 7, -8
 541              		.cfi_offset 14, -4
 542 0002 82B0     		sub	sp, sp, #8
 543              		.cfi_def_cfa_offset 16
 544 0004 00AF     		add	r7, sp, #0
 545              		.cfi_def_cfa_register 7
 546 0006 7860     		str	r0, [r7, #4]
 547 0008 0A1C     		mov	r2, r1
 548 000a BB1C     		add	r3, r7, #2
 549 000c 1A80     		strh	r2, [r3]
 320:.\Generated_Source\PSoC4/BLE_1_HAL_PVT.c ****      CY_SET_REG32(blessAddr, regValue);
 550              		.loc 1 320 0
 551 000e BB1C     		add	r3, r7, #2
 552 0010 1A88     		ldrh	r2, [r3]
 553 0012 7B68     		ldr	r3, [r7, #4]
 554 0014 1A60     		str	r2, [r3]
 321:.\Generated_Source\PSoC4/BLE_1_HAL_PVT.c **** }
 555              		.loc 1 321 0
 556 0016 BD46     		mov	sp, r7
 557 0018 02B0     		add	sp, sp, #8
 558              		@ sp needed
 559 001a 80BD     		pop	{r7, pc}
 560              		.cfi_endproc
 561              	.LFE7:
 562              		.size	CyBLE_Bless_RfRegWrite, .-CyBLE_Bless_RfRegWrite
 563              		.section	.text.CyBleHal_DelayUs,"ax",%progbits
 564              		.align	2
 565              		.global	CyBleHal_DelayUs
 566              		.code	16
 567              		.thumb_func
 568              		.type	CyBleHal_DelayUs, %function
 569              	CyBleHal_DelayUs:
 570              	.LFB8:
 322:.\Generated_Source\PSoC4/BLE_1_HAL_PVT.c **** 
 323:.\Generated_Source\PSoC4/BLE_1_HAL_PVT.c **** 
 324:.\Generated_Source\PSoC4/BLE_1_HAL_PVT.c **** void CyBleHal_DelayUs(uint16 delayVal)
 325:.\Generated_Source\PSoC4/BLE_1_HAL_PVT.c **** {
 571              		.loc 1 325 0
 572              		.cfi_startproc
 573 0000 80B5     		push	{r7, lr}
 574              		.cfi_def_cfa_offset 8
 575              		.cfi_offset 7, -8
 576              		.cfi_offset 14, -4
 577 0002 82B0     		sub	sp, sp, #8
 578              		.cfi_def_cfa_offset 16
 579 0004 00AF     		add	r7, sp, #0
 580              		.cfi_def_cfa_register 7
 581 0006 021C     		mov	r2, r0
 582 0008 BB1D     		add	r3, r7, #6
ARM GAS  C:\Users\JFDuval\AppData\Local\Temp\ccoIVQYM.s 			page 17


 583 000a 1A80     		strh	r2, [r3]
 326:.\Generated_Source\PSoC4/BLE_1_HAL_PVT.c ****     CyDelayUs(delayVal);
 584              		.loc 1 326 0
 585 000c BB1D     		add	r3, r7, #6
 586 000e 1B88     		ldrh	r3, [r3]
 587 0010 181C     		mov	r0, r3
 588 0012 FFF7FEFF 		bl	CyDelayUs
 327:.\Generated_Source\PSoC4/BLE_1_HAL_PVT.c **** }
 589              		.loc 1 327 0
 590 0016 BD46     		mov	sp, r7
 591 0018 02B0     		add	sp, sp, #8
 592              		@ sp needed
 593 001a 80BD     		pop	{r7, pc}
 594              		.cfi_endproc
 595              	.LFE8:
 596              		.size	CyBleHal_DelayUs, .-CyBleHal_DelayUs
 597              		.section	.text.CyBleHal_DelayMs,"ax",%progbits
 598              		.align	2
 599              		.global	CyBleHal_DelayMs
 600              		.code	16
 601              		.thumb_func
 602              		.type	CyBleHal_DelayMs, %function
 603              	CyBleHal_DelayMs:
 604              	.LFB9:
 328:.\Generated_Source\PSoC4/BLE_1_HAL_PVT.c **** 
 329:.\Generated_Source\PSoC4/BLE_1_HAL_PVT.c **** void CyBleHal_DelayMs(uint32 delayVal)
 330:.\Generated_Source\PSoC4/BLE_1_HAL_PVT.c **** {
 605              		.loc 1 330 0
 606              		.cfi_startproc
 607 0000 80B5     		push	{r7, lr}
 608              		.cfi_def_cfa_offset 8
 609              		.cfi_offset 7, -8
 610              		.cfi_offset 14, -4
 611 0002 82B0     		sub	sp, sp, #8
 612              		.cfi_def_cfa_offset 16
 613 0004 00AF     		add	r7, sp, #0
 614              		.cfi_def_cfa_register 7
 615 0006 7860     		str	r0, [r7, #4]
 331:.\Generated_Source\PSoC4/BLE_1_HAL_PVT.c ****     CyDelay(delayVal);
 616              		.loc 1 331 0
 617 0008 7B68     		ldr	r3, [r7, #4]
 618 000a 181C     		mov	r0, r3
 619 000c FFF7FEFF 		bl	CyDelay
 332:.\Generated_Source\PSoC4/BLE_1_HAL_PVT.c **** }
 620              		.loc 1 332 0
 621 0010 BD46     		mov	sp, r7
 622 0012 02B0     		add	sp, sp, #8
 623              		@ sp needed
 624 0014 80BD     		pop	{r7, pc}
 625              		.cfi_endproc
 626              	.LFE9:
 627              		.size	CyBleHal_DelayMs, .-CyBleHal_DelayMs
 628 0016 C046     		.section	.text.CyBleHal_EnableGlobalInterrupts,"ax",%progbits
 629              		.align	2
 630              		.global	CyBleHal_EnableGlobalInterrupts
 631              		.code	16
 632              		.thumb_func
ARM GAS  C:\Users\JFDuval\AppData\Local\Temp\ccoIVQYM.s 			page 18


 633              		.type	CyBleHal_EnableGlobalInterrupts, %function
 634              	CyBleHal_EnableGlobalInterrupts:
 635              	.LFB10:
 333:.\Generated_Source\PSoC4/BLE_1_HAL_PVT.c **** 
 334:.\Generated_Source\PSoC4/BLE_1_HAL_PVT.c **** void CyBleHal_EnableGlobalInterrupts(void)
 335:.\Generated_Source\PSoC4/BLE_1_HAL_PVT.c **** {
 636              		.loc 1 335 0
 637              		.cfi_startproc
 638 0000 80B5     		push	{r7, lr}
 639              		.cfi_def_cfa_offset 8
 640              		.cfi_offset 7, -8
 641              		.cfi_offset 14, -4
 642 0002 00AF     		add	r7, sp, #0
 643              		.cfi_def_cfa_register 7
 336:.\Generated_Source\PSoC4/BLE_1_HAL_PVT.c ****     BLE_1_bless_isr_Enable();
 644              		.loc 1 336 0
 645 0004 FFF7FEFF 		bl	BLE_1_bless_isr_Enable
 337:.\Generated_Source\PSoC4/BLE_1_HAL_PVT.c **** }
 646              		.loc 1 337 0
 647 0008 BD46     		mov	sp, r7
 648              		@ sp needed
 649 000a 80BD     		pop	{r7, pc}
 650              		.cfi_endproc
 651              	.LFE10:
 652              		.size	CyBleHal_EnableGlobalInterrupts, .-CyBleHal_EnableGlobalInterrupts
 653              		.section	.text.CyBleHal_DisableGlobalInterrupts,"ax",%progbits
 654              		.align	2
 655              		.global	CyBleHal_DisableGlobalInterrupts
 656              		.code	16
 657              		.thumb_func
 658              		.type	CyBleHal_DisableGlobalInterrupts, %function
 659              	CyBleHal_DisableGlobalInterrupts:
 660              	.LFB11:
 338:.\Generated_Source\PSoC4/BLE_1_HAL_PVT.c **** 
 339:.\Generated_Source\PSoC4/BLE_1_HAL_PVT.c **** void CyBleHal_DisableGlobalInterrupts(void)
 340:.\Generated_Source\PSoC4/BLE_1_HAL_PVT.c **** {
 661              		.loc 1 340 0
 662              		.cfi_startproc
 663 0000 80B5     		push	{r7, lr}
 664              		.cfi_def_cfa_offset 8
 665              		.cfi_offset 7, -8
 666              		.cfi_offset 14, -4
 667 0002 00AF     		add	r7, sp, #0
 668              		.cfi_def_cfa_register 7
 341:.\Generated_Source\PSoC4/BLE_1_HAL_PVT.c ****     BLE_1_bless_isr_Disable();
 669              		.loc 1 341 0
 670 0004 FFF7FEFF 		bl	BLE_1_bless_isr_Disable
 342:.\Generated_Source\PSoC4/BLE_1_HAL_PVT.c **** }
 671              		.loc 1 342 0
 672 0008 BD46     		mov	sp, r7
 673              		@ sp needed
 674 000a 80BD     		pop	{r7, pc}
 675              		.cfi_endproc
 676              	.LFE11:
 677              		.size	CyBleHal_DisableGlobalInterrupts, .-CyBleHal_DisableGlobalInterrupts
 678              		.section	.text.CyBle_HalInit,"ax",%progbits
 679              		.align	2
ARM GAS  C:\Users\JFDuval\AppData\Local\Temp\ccoIVQYM.s 			page 19


 680              		.global	CyBle_HalInit
 681              		.code	16
 682              		.thumb_func
 683              		.type	CyBle_HalInit, %function
 684              	CyBle_HalInit:
 685              	.LFB12:
 343:.\Generated_Source\PSoC4/BLE_1_HAL_PVT.c **** 
 344:.\Generated_Source\PSoC4/BLE_1_HAL_PVT.c **** void CyBle_HalInit(void)
 345:.\Generated_Source\PSoC4/BLE_1_HAL_PVT.c **** {
 686              		.loc 1 345 0
 687              		.cfi_startproc
 688 0000 80B5     		push	{r7, lr}
 689              		.cfi_def_cfa_offset 8
 690              		.cfi_offset 7, -8
 691              		.cfi_offset 14, -4
 692 0002 00AF     		add	r7, sp, #0
 693              		.cfi_def_cfa_register 7
 346:.\Generated_Source\PSoC4/BLE_1_HAL_PVT.c ****     /* For all we know the interrupt is active. */
 347:.\Generated_Source\PSoC4/BLE_1_HAL_PVT.c ****     BLE_1_bless_isr_Disable();
 694              		.loc 1 347 0
 695 0004 FFF7FEFF 		bl	BLE_1_bless_isr_Disable
 348:.\Generated_Source\PSoC4/BLE_1_HAL_PVT.c **** 
 349:.\Generated_Source\PSoC4/BLE_1_HAL_PVT.c ****     /* Set the ISR to point to the BLE_bless_isr Interrupt. */
 350:.\Generated_Source\PSoC4/BLE_1_HAL_PVT.c ****     BLE_1_bless_isr_SetVector(&CyBLE_Bless_Interrupt);
 696              		.loc 1 350 0
 697 0008 044B     		ldr	r3, .L33
 698 000a 181C     		mov	r0, r3
 699 000c FFF7FEFF 		bl	BLE_1_bless_isr_SetVector
 351:.\Generated_Source\PSoC4/BLE_1_HAL_PVT.c **** 
 352:.\Generated_Source\PSoC4/BLE_1_HAL_PVT.c ****     /* Set the priority. */
 353:.\Generated_Source\PSoC4/BLE_1_HAL_PVT.c ****     BLE_1_bless_isr_SetPriority((uint8)BLE_1_bless_isr_INTC_PRIOR_NUMBER);
 700              		.loc 1 353 0
 701 0010 0320     		mov	r0, #3
 702 0012 FFF7FEFF 		bl	BLE_1_bless_isr_SetPriority
 354:.\Generated_Source\PSoC4/BLE_1_HAL_PVT.c **** }
 703              		.loc 1 354 0
 704 0016 BD46     		mov	sp, r7
 705              		@ sp needed
 706 0018 80BD     		pop	{r7, pc}
 707              	.L34:
 708 001a C046     		.align	2
 709              	.L33:
 710 001c 00000000 		.word	CyBLE_Bless_Interrupt
 711              		.cfi_endproc
 712              	.LFE12:
 713              		.size	CyBle_HalInit, .-CyBle_HalInit
 714              		.section	.text.CYBLE_BlessStart,"ax",%progbits
 715              		.align	2
 716              		.global	CYBLE_BlessStart
 717              		.code	16
 718              		.thumb_func
 719              		.type	CYBLE_BlessStart, %function
 720              	CYBLE_BlessStart:
 721              	.LFB13:
 355:.\Generated_Source\PSoC4/BLE_1_HAL_PVT.c **** 
 356:.\Generated_Source\PSoC4/BLE_1_HAL_PVT.c **** /* Start Interrupt Controller API. */
 357:.\Generated_Source\PSoC4/BLE_1_HAL_PVT.c **** void CYBLE_BlessStart(void)
ARM GAS  C:\Users\JFDuval\AppData\Local\Temp\ccoIVQYM.s 			page 20


 358:.\Generated_Source\PSoC4/BLE_1_HAL_PVT.c **** {
 722              		.loc 1 358 0
 723              		.cfi_startproc
 724 0000 80B5     		push	{r7, lr}
 725              		.cfi_def_cfa_offset 8
 726              		.cfi_offset 7, -8
 727              		.cfi_offset 14, -4
 728 0002 00AF     		add	r7, sp, #0
 729              		.cfi_def_cfa_register 7
 359:.\Generated_Source\PSoC4/BLE_1_HAL_PVT.c ****     BLE_1_bless_isr_StartEx(&CyBLE_Bless_Interrupt);
 730              		.loc 1 359 0
 731 0004 024B     		ldr	r3, .L36
 732 0006 181C     		mov	r0, r3
 733 0008 FFF7FEFF 		bl	BLE_1_bless_isr_StartEx
 360:.\Generated_Source\PSoC4/BLE_1_HAL_PVT.c **** }
 734              		.loc 1 360 0
 735 000c BD46     		mov	sp, r7
 736              		@ sp needed
 737 000e 80BD     		pop	{r7, pc}
 738              	.L37:
 739              		.align	2
 740              	.L36:
 741 0010 00000000 		.word	CyBLE_Bless_Interrupt
 742              		.cfi_endproc
 743              	.LFE13:
 744              		.size	CYBLE_BlessStart, .-CYBLE_BlessStart
 745              		.text
 746              	.Letext0:
 747              		.file 2 ".\\Generated_Source\\PSoC4\\cytypes.h"