ARM GAS  C:\Users\Steven\AppData\Local\Temp\ccmWlmXK.s 			page 1


   1              		.cpu cortex-m0
   2              		.fpu softvfp
   3              		.eabi_attribute 20, 1
   4              		.eabi_attribute 21, 1
   5              		.eabi_attribute 23, 3
   6              		.eabi_attribute 24, 1
   7              		.eabi_attribute 25, 1
   8              		.eabi_attribute 26, 1
   9              		.eabi_attribute 30, 6
  10              		.eabi_attribute 34, 0
  11              		.eabi_attribute 18, 4
  12              		.code	16
  13              		.file	"voltage_sensing.c"
  14              		.text
  15              	.Ltext0:
  16              		.cfi_sections	.debug_frame
  17              		.global	__aeabi_i2d
  18              		.global	__aeabi_dmul
  19              		.global	__aeabi_ddiv
  20              		.global	__aeabi_dsub
  21              		.global	__aeabi_d2uiz
  22              		.section	.text.read_battery_voltage,"ax",%progbits
  23              		.align	2
  24              		.global	read_battery_voltage
  25              		.code	16
  26              		.thumb_func
  27              		.type	read_battery_voltage, %function
  28              	read_battery_voltage:
  29              	.LFB35:
  30              		.file 1 ".\\voltage_sensing.c"
   1:.\voltage_sensing.c **** #include <project.h>
   2:.\voltage_sensing.c **** #include "main.h"
   3:.\voltage_sensing.c **** #include "voltage_sensing.h"
   4:.\voltage_sensing.c **** 
   5:.\voltage_sensing.c **** //Variables
   6:.\voltage_sensing.c **** 
   7:.\voltage_sensing.c **** uint16 read_battery_voltage(){
  31              		.loc 1 7 0
  32              		.cfi_startproc
  33 0000 98B5     		push	{r3, r4, r7, lr}
  34              		.cfi_def_cfa_offset 16
  35              		.cfi_offset 3, -16
  36              		.cfi_offset 4, -12
  37              		.cfi_offset 7, -8
  38              		.cfi_offset 14, -4
  39 0002 00AF     		add	r7, sp, #0
  40              		.cfi_def_cfa_register 7
   8:.\voltage_sensing.c ****     return (uint16)(((ADC_SAR_Seq_1_GetResult16(1) * 3.3 / 2048.0) * 10.106  - 1.3278) * 1000.0);
  41              		.loc 1 8 0
  42 0004 0120     		mov	r0, #1
  43 0006 FFF7FEFF 		bl	ADC_SAR_Seq_1_GetResult16
  44 000a 031C     		mov	r3, r0
  45 000c 181C     		mov	r0, r3
  46 000e FFF7FEFF 		bl	__aeabi_i2d
  47 0012 031C     		mov	r3, r0
  48 0014 0C1C     		mov	r4, r1
  49 0016 181C     		mov	r0, r3
ARM GAS  C:\Users\Steven\AppData\Local\Temp\ccmWlmXK.s 			page 2


  50 0018 211C     		mov	r1, r4
  51 001a 184B     		ldr	r3, .L3+4
  52 001c 164A     		ldr	r2, .L3
  53 001e FFF7FEFF 		bl	__aeabi_dmul
  54 0022 031C     		mov	r3, r0
  55 0024 0C1C     		mov	r4, r1
  56 0026 181C     		mov	r0, r3
  57 0028 211C     		mov	r1, r4
  58 002a 154A     		ldr	r2, .L3+8
  59 002c 154B     		ldr	r3, .L3+12
  60 002e FFF7FEFF 		bl	__aeabi_ddiv
  61 0032 031C     		mov	r3, r0
  62 0034 0C1C     		mov	r4, r1
  63 0036 181C     		mov	r0, r3
  64 0038 211C     		mov	r1, r4
  65 003a 134A     		ldr	r2, .L3+16
  66 003c 134B     		ldr	r3, .L3+20
  67 003e FFF7FEFF 		bl	__aeabi_dmul
  68 0042 031C     		mov	r3, r0
  69 0044 0C1C     		mov	r4, r1
  70 0046 181C     		mov	r0, r3
  71 0048 211C     		mov	r1, r4
  72 004a 114A     		ldr	r2, .L3+24
  73 004c 114B     		ldr	r3, .L3+28
  74 004e FFF7FEFF 		bl	__aeabi_dsub
  75 0052 031C     		mov	r3, r0
  76 0054 0C1C     		mov	r4, r1
  77 0056 181C     		mov	r0, r3
  78 0058 211C     		mov	r1, r4
  79 005a 0F4A     		ldr	r2, .L3+32
  80 005c 0F4B     		ldr	r3, .L3+36
  81 005e FFF7FEFF 		bl	__aeabi_dmul
  82 0062 031C     		mov	r3, r0
  83 0064 0C1C     		mov	r4, r1
  84 0066 181C     		mov	r0, r3
  85 0068 211C     		mov	r1, r4
  86 006a FFF7FEFF 		bl	__aeabi_d2uiz
  87 006e 031C     		mov	r3, r0
  88 0070 9BB2     		uxth	r3, r3
   9:.\voltage_sensing.c **** }...
  89              		.loc 1 9 0
  90 0072 181C     		mov	r0, r3
  91 0074 BD46     		mov	sp, r7
  92              		@ sp needed
  93 0076 98BD     		pop	{r3, r4, r7, pc}
  94              	.L4:
  95              		.align	3
  96              	.L3:
  97 0078 66666666 		.word	1717986918
  98 007c 66660A40 		.word	1074423398
  99 0080 00000000 		.word	0
 100 0084 0000A040 		.word	1084227584
 101 0088 83C0CAA1 		.word	-1580547965
 102 008c 45362440 		.word	1076115013
 103 0090 910F7A36 		.word	913969041
 104 0094 AB3EF53F 		.word	1073036971
 105 0098 00000000 		.word	0
ARM GAS  C:\Users\Steven\AppData\Local\Temp\ccmWlmXK.s 			page 3


 106 009c 00408F40 		.word	1083129856
 107              		.cfi_endproc
 108              	.LFE35:
 109              		.size	read_battery_voltage, .-read_battery_voltage
 110              		.text
 111              	.Letext0:
 112              		.file 2 ".\\Generated_Source\\PSoC4/cytypes.h"