ARM GAS  C:\Users\JFDuval\AppData\Local\Temp\ccZYCjoz.s 			page 1


   1              		.cpu cortex-m0
   2              		.fpu softvfp
   3              		.eabi_attribute 20, 1
   4              		.eabi_attribute 21, 1
   5              		.eabi_attribute 23, 3
   6              		.eabi_attribute 24, 1
   7              		.eabi_attribute 25, 1
   8              		.eabi_attribute 26, 1
   9              		.eabi_attribute 30, 6
  10              		.eabi_attribute 34, 0
  11              		.eabi_attribute 18, 4
  12              		.code	16
  13              		.file	"ADC_SAR_Seq_1_PM.c"
  14              		.text
  15              	.Ltext0:
  16              		.cfi_sections	.debug_frame
  17              		.bss
  18              		.align	2
  19              	ADC_SAR_Seq_1_backup:
  20 0000 00       		.space	1
  21 0001 000000   		.section	.text.ADC_SAR_Seq_1_SaveConfig,"ax",%progbits
  22              		.align	2
  23              		.global	ADC_SAR_Seq_1_SaveConfig
  24              		.code	16
  25              		.thumb_func
  26              		.type	ADC_SAR_Seq_1_SaveConfig, %function
  27              	ADC_SAR_Seq_1_SaveConfig:
  28              	.LFB2:
  29              		.file 1 ".\\Generated_Source\\PSoC4\\ADC_SAR_Seq_1_PM.c"
   1:.\Generated_Source\PSoC4/ADC_SAR_Seq_1_PM.c **** /*******************************************************************************
   2:.\Generated_Source\PSoC4/ADC_SAR_Seq_1_PM.c **** * File Name: ADC_SAR_Seq_1_PM.c
   3:.\Generated_Source\PSoC4/ADC_SAR_Seq_1_PM.c **** * Version 2.10
   4:.\Generated_Source\PSoC4/ADC_SAR_Seq_1_PM.c **** *
   5:.\Generated_Source\PSoC4/ADC_SAR_Seq_1_PM.c **** * Description:
   6:.\Generated_Source\PSoC4/ADC_SAR_Seq_1_PM.c **** *  This file provides Sleep/WakeUp APIs functionality.
   7:.\Generated_Source\PSoC4/ADC_SAR_Seq_1_PM.c **** *
   8:.\Generated_Source\PSoC4/ADC_SAR_Seq_1_PM.c **** * Note:
   9:.\Generated_Source\PSoC4/ADC_SAR_Seq_1_PM.c **** *
  10:.\Generated_Source\PSoC4/ADC_SAR_Seq_1_PM.c **** ********************************************************************************
  11:.\Generated_Source\PSoC4/ADC_SAR_Seq_1_PM.c **** * Copyright 2008-2015, Cypress Semiconductor Corporation.  All rights reserved.
  12:.\Generated_Source\PSoC4/ADC_SAR_Seq_1_PM.c **** * You may use this file only in accordance with the license, terms, conditions,
  13:.\Generated_Source\PSoC4/ADC_SAR_Seq_1_PM.c **** * disclaimers, and limitations in the end user license agreement accompanying
  14:.\Generated_Source\PSoC4/ADC_SAR_Seq_1_PM.c **** * the software package with which this file was provided.
  15:.\Generated_Source\PSoC4/ADC_SAR_Seq_1_PM.c **** *******************************************************************************/
  16:.\Generated_Source\PSoC4/ADC_SAR_Seq_1_PM.c **** 
  17:.\Generated_Source\PSoC4/ADC_SAR_Seq_1_PM.c **** #include "ADC_SAR_Seq_1.h"
  18:.\Generated_Source\PSoC4/ADC_SAR_Seq_1_PM.c **** 
  19:.\Generated_Source\PSoC4/ADC_SAR_Seq_1_PM.c **** 
  20:.\Generated_Source\PSoC4/ADC_SAR_Seq_1_PM.c **** /***************************************
  21:.\Generated_Source\PSoC4/ADC_SAR_Seq_1_PM.c **** * Local data allocation
  22:.\Generated_Source\PSoC4/ADC_SAR_Seq_1_PM.c **** ***************************************/
  23:.\Generated_Source\PSoC4/ADC_SAR_Seq_1_PM.c **** 
  24:.\Generated_Source\PSoC4/ADC_SAR_Seq_1_PM.c **** static ADC_SAR_Seq_1_BACKUP_STRUCT  ADC_SAR_Seq_1_backup =
  25:.\Generated_Source\PSoC4/ADC_SAR_Seq_1_PM.c **** {
  26:.\Generated_Source\PSoC4/ADC_SAR_Seq_1_PM.c ****     ADC_SAR_Seq_1_DISABLED
  27:.\Generated_Source\PSoC4/ADC_SAR_Seq_1_PM.c **** };
  28:.\Generated_Source\PSoC4/ADC_SAR_Seq_1_PM.c **** 
ARM GAS  C:\Users\JFDuval\AppData\Local\Temp\ccZYCjoz.s 			page 2


  29:.\Generated_Source\PSoC4/ADC_SAR_Seq_1_PM.c **** 
  30:.\Generated_Source\PSoC4/ADC_SAR_Seq_1_PM.c **** /*******************************************************************************
  31:.\Generated_Source\PSoC4/ADC_SAR_Seq_1_PM.c **** * Function Name: ADC_SAR_Seq_1_SaveConfig
  32:.\Generated_Source\PSoC4/ADC_SAR_Seq_1_PM.c **** ********************************************************************************
  33:.\Generated_Source\PSoC4/ADC_SAR_Seq_1_PM.c **** *
  34:.\Generated_Source\PSoC4/ADC_SAR_Seq_1_PM.c **** * Summary:
  35:.\Generated_Source\PSoC4/ADC_SAR_Seq_1_PM.c **** *  Saves the current user configuration.
  36:.\Generated_Source\PSoC4/ADC_SAR_Seq_1_PM.c **** *
  37:.\Generated_Source\PSoC4/ADC_SAR_Seq_1_PM.c **** * Parameters:
  38:.\Generated_Source\PSoC4/ADC_SAR_Seq_1_PM.c **** *  None.
  39:.\Generated_Source\PSoC4/ADC_SAR_Seq_1_PM.c **** *
  40:.\Generated_Source\PSoC4/ADC_SAR_Seq_1_PM.c **** * Return:
  41:.\Generated_Source\PSoC4/ADC_SAR_Seq_1_PM.c **** *  None.
  42:.\Generated_Source\PSoC4/ADC_SAR_Seq_1_PM.c **** *
  43:.\Generated_Source\PSoC4/ADC_SAR_Seq_1_PM.c **** *******************************************************************************/
  44:.\Generated_Source\PSoC4/ADC_SAR_Seq_1_PM.c **** void ADC_SAR_Seq_1_SaveConfig(void)
  45:.\Generated_Source\PSoC4/ADC_SAR_Seq_1_PM.c **** {
  30              		.loc 1 45 0
  31              		.cfi_startproc
  32 0000 80B5     		push	{r7, lr}
  33              		.cfi_def_cfa_offset 8
  34              		.cfi_offset 7, -8
  35              		.cfi_offset 14, -4
  36 0002 00AF     		add	r7, sp, #0
  37              		.cfi_def_cfa_register 7
  46:.\Generated_Source\PSoC4/ADC_SAR_Seq_1_PM.c ****     /* All configuration registers are marked as [reset_all_retention] */
  47:.\Generated_Source\PSoC4/ADC_SAR_Seq_1_PM.c **** }
  38              		.loc 1 47 0
  39 0004 BD46     		mov	sp, r7
  40              		@ sp needed
  41 0006 80BD     		pop	{r7, pc}
  42              		.cfi_endproc
  43              	.LFE2:
  44              		.size	ADC_SAR_Seq_1_SaveConfig, .-ADC_SAR_Seq_1_SaveConfig
  45              		.section	.text.ADC_SAR_Seq_1_RestoreConfig,"ax",%progbits
  46              		.align	2
  47              		.global	ADC_SAR_Seq_1_RestoreConfig
  48              		.code	16
  49              		.thumb_func
  50              		.type	ADC_SAR_Seq_1_RestoreConfig, %function
  51              	ADC_SAR_Seq_1_RestoreConfig:
  52              	.LFB3:
  48:.\Generated_Source\PSoC4/ADC_SAR_Seq_1_PM.c **** 
  49:.\Generated_Source\PSoC4/ADC_SAR_Seq_1_PM.c **** 
  50:.\Generated_Source\PSoC4/ADC_SAR_Seq_1_PM.c **** /*******************************************************************************
  51:.\Generated_Source\PSoC4/ADC_SAR_Seq_1_PM.c **** * Function Name: ADC_SAR_Seq_1_RestoreConfig
  52:.\Generated_Source\PSoC4/ADC_SAR_Seq_1_PM.c **** ********************************************************************************
  53:.\Generated_Source\PSoC4/ADC_SAR_Seq_1_PM.c **** *
  54:.\Generated_Source\PSoC4/ADC_SAR_Seq_1_PM.c **** * Summary:
  55:.\Generated_Source\PSoC4/ADC_SAR_Seq_1_PM.c **** *  Restores the current user configuration.
  56:.\Generated_Source\PSoC4/ADC_SAR_Seq_1_PM.c **** *
  57:.\Generated_Source\PSoC4/ADC_SAR_Seq_1_PM.c **** * Parameters:
  58:.\Generated_Source\PSoC4/ADC_SAR_Seq_1_PM.c **** *  None.
  59:.\Generated_Source\PSoC4/ADC_SAR_Seq_1_PM.c **** *
  60:.\Generated_Source\PSoC4/ADC_SAR_Seq_1_PM.c **** * Return:
  61:.\Generated_Source\PSoC4/ADC_SAR_Seq_1_PM.c **** *  None.
  62:.\Generated_Source\PSoC4/ADC_SAR_Seq_1_PM.c **** *
ARM GAS  C:\Users\JFDuval\AppData\Local\Temp\ccZYCjoz.s 			page 3


  63:.\Generated_Source\PSoC4/ADC_SAR_Seq_1_PM.c **** *******************************************************************************/
  64:.\Generated_Source\PSoC4/ADC_SAR_Seq_1_PM.c **** void ADC_SAR_Seq_1_RestoreConfig(void)
  65:.\Generated_Source\PSoC4/ADC_SAR_Seq_1_PM.c **** {
  53              		.loc 1 65 0
  54              		.cfi_startproc
  55 0000 80B5     		push	{r7, lr}
  56              		.cfi_def_cfa_offset 8
  57              		.cfi_offset 7, -8
  58              		.cfi_offset 14, -4
  59 0002 00AF     		add	r7, sp, #0
  60              		.cfi_def_cfa_register 7
  66:.\Generated_Source\PSoC4/ADC_SAR_Seq_1_PM.c ****     /* All congiguration registers are marked as [reset_all_retention] */
  67:.\Generated_Source\PSoC4/ADC_SAR_Seq_1_PM.c **** }
  61              		.loc 1 67 0
  62 0004 BD46     		mov	sp, r7
  63              		@ sp needed
  64 0006 80BD     		pop	{r7, pc}
  65              		.cfi_endproc
  66              	.LFE3:
  67              		.size	ADC_SAR_Seq_1_RestoreConfig, .-ADC_SAR_Seq_1_RestoreConfig
  68              		.section	.text.ADC_SAR_Seq_1_Sleep,"ax",%progbits
  69              		.align	2
  70              		.global	ADC_SAR_Seq_1_Sleep
  71              		.code	16
  72              		.thumb_func
  73              		.type	ADC_SAR_Seq_1_Sleep, %function
  74              	ADC_SAR_Seq_1_Sleep:
  75              	.LFB4:
  68:.\Generated_Source\PSoC4/ADC_SAR_Seq_1_PM.c **** 
  69:.\Generated_Source\PSoC4/ADC_SAR_Seq_1_PM.c **** 
  70:.\Generated_Source\PSoC4/ADC_SAR_Seq_1_PM.c **** /*******************************************************************************
  71:.\Generated_Source\PSoC4/ADC_SAR_Seq_1_PM.c **** * Function Name: ADC_SAR_Seq_1_Sleep
  72:.\Generated_Source\PSoC4/ADC_SAR_Seq_1_PM.c **** ********************************************************************************
  73:.\Generated_Source\PSoC4/ADC_SAR_Seq_1_PM.c **** *
  74:.\Generated_Source\PSoC4/ADC_SAR_Seq_1_PM.c **** * Summary:
  75:.\Generated_Source\PSoC4/ADC_SAR_Seq_1_PM.c **** *  Stops the ADC operation and saves the configuration registers and component
  76:.\Generated_Source\PSoC4/ADC_SAR_Seq_1_PM.c **** *  enable state. Should be called just prior to entering sleep.
  77:.\Generated_Source\PSoC4/ADC_SAR_Seq_1_PM.c **** *
  78:.\Generated_Source\PSoC4/ADC_SAR_Seq_1_PM.c **** * Parameters:
  79:.\Generated_Source\PSoC4/ADC_SAR_Seq_1_PM.c **** *  None.
  80:.\Generated_Source\PSoC4/ADC_SAR_Seq_1_PM.c **** *
  81:.\Generated_Source\PSoC4/ADC_SAR_Seq_1_PM.c **** * Return:
  82:.\Generated_Source\PSoC4/ADC_SAR_Seq_1_PM.c **** *  None.
  83:.\Generated_Source\PSoC4/ADC_SAR_Seq_1_PM.c **** *
  84:.\Generated_Source\PSoC4/ADC_SAR_Seq_1_PM.c **** * Global Variables:
  85:.\Generated_Source\PSoC4/ADC_SAR_Seq_1_PM.c **** *  ADC_SAR_Seq_1_backup - modified.
  86:.\Generated_Source\PSoC4/ADC_SAR_Seq_1_PM.c **** *
  87:.\Generated_Source\PSoC4/ADC_SAR_Seq_1_PM.c **** *******************************************************************************/
  88:.\Generated_Source\PSoC4/ADC_SAR_Seq_1_PM.c **** void ADC_SAR_Seq_1_Sleep(void)
  89:.\Generated_Source\PSoC4/ADC_SAR_Seq_1_PM.c **** {
  76              		.loc 1 89 0
  77              		.cfi_startproc
  78 0000 80B5     		push	{r7, lr}
  79              		.cfi_def_cfa_offset 8
  80              		.cfi_offset 7, -8
  81              		.cfi_offset 14, -4
  82 0002 00AF     		add	r7, sp, #0
ARM GAS  C:\Users\JFDuval\AppData\Local\Temp\ccZYCjoz.s 			page 4


  83              		.cfi_def_cfa_register 7
  90:.\Generated_Source\PSoC4/ADC_SAR_Seq_1_PM.c ****     /* During deepsleep/ hibernate mode keep SARMUX active, i.e. do not open
  91:.\Generated_Source\PSoC4/ADC_SAR_Seq_1_PM.c ****     *   all switches (disconnect), to be used for ADFT
  92:.\Generated_Source\PSoC4/ADC_SAR_Seq_1_PM.c ****     */
  93:.\Generated_Source\PSoC4/ADC_SAR_Seq_1_PM.c ****     ADC_SAR_Seq_1_SAR_DFT_CTRL_REG |= ADC_SAR_Seq_1_ADFT_OVERRIDE;
  84              		.loc 1 93 0
  85 0004 1A4B     		ldr	r3, .L9
  86 0006 1A4A     		ldr	r2, .L9
  87 0008 1268     		ldr	r2, [r2]
  88 000a 8021     		mov	r1, #128
  89 000c 0906     		lsl	r1, r1, #24
  90 000e 0A43     		orr	r2, r1
  91 0010 1A60     		str	r2, [r3]
  94:.\Generated_Source\PSoC4/ADC_SAR_Seq_1_PM.c ****     if((ADC_SAR_Seq_1_SAR_CTRL_REG  & ADC_SAR_Seq_1_ENABLE) != 0u)
  92              		.loc 1 94 0
  93 0012 184B     		ldr	r3, .L9+4
  94 0014 1B68     		ldr	r3, [r3]
  95 0016 002B     		cmp	r3, #0
  96 0018 24DA     		bge	.L4
  95:.\Generated_Source\PSoC4/ADC_SAR_Seq_1_PM.c ****     {
  96:.\Generated_Source\PSoC4/ADC_SAR_Seq_1_PM.c ****         if((ADC_SAR_Seq_1_SAR_SAMPLE_CTRL_REG & ADC_SAR_Seq_1_CONTINUOUS_EN) != 0u)
  97              		.loc 1 96 0
  98 001a 174B     		ldr	r3, .L9+8
  99 001c 1A68     		ldr	r2, [r3]
 100 001e 8023     		mov	r3, #128
 101 0020 5B02     		lsl	r3, r3, #9
 102 0022 1340     		and	r3, r2
 103 0024 03D0     		beq	.L5
  97:.\Generated_Source\PSoC4/ADC_SAR_Seq_1_PM.c ****         {
  98:.\Generated_Source\PSoC4/ADC_SAR_Seq_1_PM.c ****             ADC_SAR_Seq_1_backup.enableState = ADC_SAR_Seq_1_ENABLED | ADC_SAR_Seq_1_STARTED;
 104              		.loc 1 98 0
 105 0026 154B     		ldr	r3, .L9+12
 106 0028 0322     		mov	r2, #3
 107 002a 1A70     		strb	r2, [r3]
 108 002c 02E0     		b	.L6
 109              	.L5:
  99:.\Generated_Source\PSoC4/ADC_SAR_Seq_1_PM.c ****         }
 100:.\Generated_Source\PSoC4/ADC_SAR_Seq_1_PM.c ****         else
 101:.\Generated_Source\PSoC4/ADC_SAR_Seq_1_PM.c ****         {
 102:.\Generated_Source\PSoC4/ADC_SAR_Seq_1_PM.c ****             ADC_SAR_Seq_1_backup.enableState = ADC_SAR_Seq_1_ENABLED;
 110              		.loc 1 102 0
 111 002e 134B     		ldr	r3, .L9+12
 112 0030 0122     		mov	r2, #1
 113 0032 1A70     		strb	r2, [r3]
 114              	.L6:
 103:.\Generated_Source\PSoC4/ADC_SAR_Seq_1_PM.c ****         }
 104:.\Generated_Source\PSoC4/ADC_SAR_Seq_1_PM.c ****         ADC_SAR_Seq_1_StopConvert();
 115              		.loc 1 104 0
 116 0034 FFF7FEFF 		bl	ADC_SAR_Seq_1_StopConvert
 105:.\Generated_Source\PSoC4/ADC_SAR_Seq_1_PM.c ****         ADC_SAR_Seq_1_Stop();
 117              		.loc 1 105 0
 118 0038 FFF7FEFF 		bl	ADC_SAR_Seq_1_Stop
 106:.\Generated_Source\PSoC4/ADC_SAR_Seq_1_PM.c ****         
 107:.\Generated_Source\PSoC4/ADC_SAR_Seq_1_PM.c ****         /* Disable the SAR internal pump before entering the chip low power mode */
 108:.\Generated_Source\PSoC4/ADC_SAR_Seq_1_PM.c ****         if((ADC_SAR_Seq_1_SAR_CTRL_REG & ADC_SAR_Seq_1_BOOSTPUMP_EN) != 0u)
 119              		.loc 1 108 0
 120 003c 0D4B     		ldr	r3, .L9+4
ARM GAS  C:\Users\JFDuval\AppData\Local\Temp\ccZYCjoz.s 			page 5


 121 003e 1A68     		ldr	r2, [r3]
 122 0040 8023     		mov	r3, #128
 123 0042 5B03     		lsl	r3, r3, #13
 124 0044 1340     		and	r3, r2
 125 0046 10D0     		beq	.L3
 109:.\Generated_Source\PSoC4/ADC_SAR_Seq_1_PM.c ****         {
 110:.\Generated_Source\PSoC4/ADC_SAR_Seq_1_PM.c ****             ADC_SAR_Seq_1_SAR_CTRL_REG &= (uint32)~ADC_SAR_Seq_1_BOOSTPUMP_EN;
 126              		.loc 1 110 0
 127 0048 0A4B     		ldr	r3, .L9+4
 128 004a 0A4A     		ldr	r2, .L9+4
 129 004c 1168     		ldr	r1, [r2]
 130 004e 0C4A     		ldr	r2, .L9+16
 131 0050 0A40     		and	r2, r1
 132 0052 1A60     		str	r2, [r3]
 111:.\Generated_Source\PSoC4/ADC_SAR_Seq_1_PM.c ****             ADC_SAR_Seq_1_backup.enableState |= ADC_SAR_Seq_1_BOOSTPUMP_ENABLED;
 133              		.loc 1 111 0
 134 0054 094B     		ldr	r3, .L9+12
 135 0056 1B78     		ldrb	r3, [r3]
 136 0058 0422     		mov	r2, #4
 137 005a 1343     		orr	r3, r2
 138 005c DAB2     		uxtb	r2, r3
 139 005e 074B     		ldr	r3, .L9+12
 140 0060 1A70     		strb	r2, [r3]
 141 0062 02E0     		b	.L3
 142              	.L4:
 112:.\Generated_Source\PSoC4/ADC_SAR_Seq_1_PM.c ****         }
 113:.\Generated_Source\PSoC4/ADC_SAR_Seq_1_PM.c ****     }
 114:.\Generated_Source\PSoC4/ADC_SAR_Seq_1_PM.c ****     else
 115:.\Generated_Source\PSoC4/ADC_SAR_Seq_1_PM.c ****     {
 116:.\Generated_Source\PSoC4/ADC_SAR_Seq_1_PM.c ****         ADC_SAR_Seq_1_backup.enableState = ADC_SAR_Seq_1_DISABLED;
 143              		.loc 1 116 0
 144 0064 054B     		ldr	r3, .L9+12
 145 0066 0022     		mov	r2, #0
 146 0068 1A70     		strb	r2, [r3]
 147              	.L3:
 117:.\Generated_Source\PSoC4/ADC_SAR_Seq_1_PM.c ****     }
 118:.\Generated_Source\PSoC4/ADC_SAR_Seq_1_PM.c **** }
 148              		.loc 1 118 0
 149 006a BD46     		mov	sp, r7
 150              		@ sp needed
 151 006c 80BD     		pop	{r7, pc}
 152              	.L10:
 153 006e C046     		.align	2
 154              	.L9:
 155 0070 30003A40 		.word	1077542960
 156 0074 00003A40 		.word	1077542912
 157 0078 04003A40 		.word	1077542916
 158 007c 00000000 		.word	ADC_SAR_Seq_1_backup
 159 0080 FFFFEFFF 		.word	-1048577
 160              		.cfi_endproc
 161              	.LFE4:
 162              		.size	ADC_SAR_Seq_1_Sleep, .-ADC_SAR_Seq_1_Sleep
 163              		.section	.text.ADC_SAR_Seq_1_Wakeup,"ax",%progbits
 164              		.align	2
 165              		.global	ADC_SAR_Seq_1_Wakeup
 166              		.code	16
 167              		.thumb_func
ARM GAS  C:\Users\JFDuval\AppData\Local\Temp\ccZYCjoz.s 			page 6


 168              		.type	ADC_SAR_Seq_1_Wakeup, %function
 169              	ADC_SAR_Seq_1_Wakeup:
 170              	.LFB5:
 119:.\Generated_Source\PSoC4/ADC_SAR_Seq_1_PM.c **** 
 120:.\Generated_Source\PSoC4/ADC_SAR_Seq_1_PM.c **** 
 121:.\Generated_Source\PSoC4/ADC_SAR_Seq_1_PM.c **** /*******************************************************************************
 122:.\Generated_Source\PSoC4/ADC_SAR_Seq_1_PM.c **** * Function Name: ADC_SAR_Seq_1_Wakeup
 123:.\Generated_Source\PSoC4/ADC_SAR_Seq_1_PM.c **** ********************************************************************************
 124:.\Generated_Source\PSoC4/ADC_SAR_Seq_1_PM.c **** *
 125:.\Generated_Source\PSoC4/ADC_SAR_Seq_1_PM.c **** * Summary:
 126:.\Generated_Source\PSoC4/ADC_SAR_Seq_1_PM.c **** *  Restores the component enable state and configuration registers.
 127:.\Generated_Source\PSoC4/ADC_SAR_Seq_1_PM.c **** *  This should be called just after awaking from sleep mode.
 128:.\Generated_Source\PSoC4/ADC_SAR_Seq_1_PM.c **** *
 129:.\Generated_Source\PSoC4/ADC_SAR_Seq_1_PM.c **** * Parameters:
 130:.\Generated_Source\PSoC4/ADC_SAR_Seq_1_PM.c **** *  None.
 131:.\Generated_Source\PSoC4/ADC_SAR_Seq_1_PM.c **** *
 132:.\Generated_Source\PSoC4/ADC_SAR_Seq_1_PM.c **** * Return:
 133:.\Generated_Source\PSoC4/ADC_SAR_Seq_1_PM.c **** *  None.
 134:.\Generated_Source\PSoC4/ADC_SAR_Seq_1_PM.c **** *
 135:.\Generated_Source\PSoC4/ADC_SAR_Seq_1_PM.c **** * Global Variables:
 136:.\Generated_Source\PSoC4/ADC_SAR_Seq_1_PM.c **** *  ADC_SAR_Seq_1_backup - used.
 137:.\Generated_Source\PSoC4/ADC_SAR_Seq_1_PM.c **** *
 138:.\Generated_Source\PSoC4/ADC_SAR_Seq_1_PM.c **** *******************************************************************************/
 139:.\Generated_Source\PSoC4/ADC_SAR_Seq_1_PM.c **** void ADC_SAR_Seq_1_Wakeup(void)
 140:.\Generated_Source\PSoC4/ADC_SAR_Seq_1_PM.c **** {
 171              		.loc 1 140 0
 172              		.cfi_startproc
 173 0000 80B5     		push	{r7, lr}
 174              		.cfi_def_cfa_offset 8
 175              		.cfi_offset 7, -8
 176              		.cfi_offset 14, -4
 177 0002 00AF     		add	r7, sp, #0
 178              		.cfi_def_cfa_register 7
 141:.\Generated_Source\PSoC4/ADC_SAR_Seq_1_PM.c ****     ADC_SAR_Seq_1_SAR_DFT_CTRL_REG &= (uint32)~ADC_SAR_Seq_1_ADFT_OVERRIDE;
 179              		.loc 1 141 0
 180 0004 114B     		ldr	r3, .L14
 181 0006 114A     		ldr	r2, .L14
 182 0008 1268     		ldr	r2, [r2]
 183 000a 5200     		lsl	r2, r2, #1
 184 000c 5208     		lsr	r2, r2, #1
 185 000e 1A60     		str	r2, [r3]
 142:.\Generated_Source\PSoC4/ADC_SAR_Seq_1_PM.c ****     if(ADC_SAR_Seq_1_backup.enableState != ADC_SAR_Seq_1_DISABLED)
 186              		.loc 1 142 0
 187 0010 0F4B     		ldr	r3, .L14+4
 188 0012 1B78     		ldrb	r3, [r3]
 189 0014 002B     		cmp	r3, #0
 190 0016 16D0     		beq	.L11
 143:.\Generated_Source\PSoC4/ADC_SAR_Seq_1_PM.c ****     {
 144:.\Generated_Source\PSoC4/ADC_SAR_Seq_1_PM.c ****         /* Enable the SAR internal pump  */
 145:.\Generated_Source\PSoC4/ADC_SAR_Seq_1_PM.c ****         if((ADC_SAR_Seq_1_backup.enableState & ADC_SAR_Seq_1_BOOSTPUMP_ENABLED) != 0u)
 191              		.loc 1 145 0
 192 0018 0D4B     		ldr	r3, .L14+4
 193 001a 1B78     		ldrb	r3, [r3]
 194 001c 1A1C     		mov	r2, r3
 195 001e 0423     		mov	r3, #4
 196 0020 1340     		and	r3, r2
 197 0022 06D0     		beq	.L13
ARM GAS  C:\Users\JFDuval\AppData\Local\Temp\ccZYCjoz.s 			page 7


 146:.\Generated_Source\PSoC4/ADC_SAR_Seq_1_PM.c ****         {
 147:.\Generated_Source\PSoC4/ADC_SAR_Seq_1_PM.c ****             ADC_SAR_Seq_1_SAR_CTRL_REG |= ADC_SAR_Seq_1_BOOSTPUMP_EN;
 198              		.loc 1 147 0
 199 0024 0B4B     		ldr	r3, .L14+8
 200 0026 0B4A     		ldr	r2, .L14+8
 201 0028 1268     		ldr	r2, [r2]
 202 002a 8021     		mov	r1, #128
 203 002c 4903     		lsl	r1, r1, #13
 204 002e 0A43     		orr	r2, r1
 205 0030 1A60     		str	r2, [r3]
 206              	.L13:
 148:.\Generated_Source\PSoC4/ADC_SAR_Seq_1_PM.c ****         }
 149:.\Generated_Source\PSoC4/ADC_SAR_Seq_1_PM.c ****         ADC_SAR_Seq_1_Enable();
 207              		.loc 1 149 0
 208 0032 FFF7FEFF 		bl	ADC_SAR_Seq_1_Enable
 150:.\Generated_Source\PSoC4/ADC_SAR_Seq_1_PM.c ****         if((ADC_SAR_Seq_1_backup.enableState & ADC_SAR_Seq_1_STARTED) != 0u)
 209              		.loc 1 150 0
 210 0036 064B     		ldr	r3, .L14+4
 211 0038 1B78     		ldrb	r3, [r3]
 212 003a 1A1C     		mov	r2, r3
 213 003c 0223     		mov	r3, #2
 214 003e 1340     		and	r3, r2
 215 0040 01D0     		beq	.L11
 151:.\Generated_Source\PSoC4/ADC_SAR_Seq_1_PM.c ****         {
 152:.\Generated_Source\PSoC4/ADC_SAR_Seq_1_PM.c ****             ADC_SAR_Seq_1_StartConvert();
 216              		.loc 1 152 0
 217 0042 FFF7FEFF 		bl	ADC_SAR_Seq_1_StartConvert
 218              	.L11:
 153:.\Generated_Source\PSoC4/ADC_SAR_Seq_1_PM.c ****         }
 154:.\Generated_Source\PSoC4/ADC_SAR_Seq_1_PM.c ****     }
 155:.\Generated_Source\PSoC4/ADC_SAR_Seq_1_PM.c **** }
 219              		.loc 1 155 0
 220 0046 BD46     		mov	sp, r7
 221              		@ sp needed
 222 0048 80BD     		pop	{r7, pc}
 223              	.L15:
 224 004a C046     		.align	2
 225              	.L14:
 226 004c 30003A40 		.word	1077542960
 227 0050 00000000 		.word	ADC_SAR_Seq_1_backup
 228 0054 00003A40 		.word	1077542912
 229              		.cfi_endproc
 230              	.LFE5:
 231              		.size	ADC_SAR_Seq_1_Wakeup, .-ADC_SAR_Seq_1_Wakeup
 232              		.text
 233              	.Letext0:
 234              		.file 2 ".\\Generated_Source\\PSoC4\\cytypes.h"
 235              		.file 3 ".\\Generated_Source\\PSoC4\\ADC_SAR_Seq_1.h"