ARM GAS  C:\Users\JFDuval\AppData\Local\Temp\ccgaWq6k.s 			page 1


   1              		.cpu cortex-m0
   2              		.fpu softvfp
   3              		.eabi_attribute 20, 1
   4              		.eabi_attribute 21, 1
   5              		.eabi_attribute 23, 3
   6              		.eabi_attribute 24, 1
   7              		.eabi_attribute 25, 1
   8              		.eabi_attribute 26, 1
   9              		.eabi_attribute 30, 6
  10              		.eabi_attribute 34, 0
  11              		.eabi_attribute 18, 4
  12              		.code	16
  13              		.file	"BLE_1_ias.c"
  14              		.text
  15              	.Ltext0:
  16              		.cfi_sections	.debug_frame
  17              		.bss
  18              		.align	2
  19              	CyBle_IasApplCallback:
  20 0000 00000000 		.space	4
  21              		.global	cyBle_iass
  22              		.section	.rodata
  23              		.align	2
  24              		.type	cyBle_iass, %object
  25              		.size	cyBle_iass, 4
  26              	cyBle_iass:
  27 0000 0C00     		.short	12
  28 0002 0E00     		.short	14
  29              		.section	.text.CyBle_IasInit,"ax",%progbits
  30              		.align	2
  31              		.global	CyBle_IasInit
  32              		.code	16
  33              		.thumb_func
  34              		.type	CyBle_IasInit, %function
  35              	CyBle_IasInit:
  36              	.LFB2:
  37              		.file 1 ".\\Generated_Source\\PSoC4\\BLE_1_ias.c"
   1:.\Generated_Source\PSoC4/BLE_1_ias.c **** /*******************************************************************************
   2:.\Generated_Source\PSoC4/BLE_1_ias.c **** File Name: CYBLE_ias.c
   3:.\Generated_Source\PSoC4/BLE_1_ias.c **** Version 1.20
   4:.\Generated_Source\PSoC4/BLE_1_ias.c **** 
   5:.\Generated_Source\PSoC4/BLE_1_ias.c **** Description:
   6:.\Generated_Source\PSoC4/BLE_1_ias.c ****  This file contains the source code for the Immediate Alert Service of the BLE
   7:.\Generated_Source\PSoC4/BLE_1_ias.c ****  Component.
   8:.\Generated_Source\PSoC4/BLE_1_ias.c **** 
   9:.\Generated_Source\PSoC4/BLE_1_ias.c **** ********************************************************************************
  10:.\Generated_Source\PSoC4/BLE_1_ias.c **** Copyright 2014-2015, Cypress Semiconductor Corporation.  All rights reserved.
  11:.\Generated_Source\PSoC4/BLE_1_ias.c **** You may use this file only in accordance with the license, terms, conditions,
  12:.\Generated_Source\PSoC4/BLE_1_ias.c **** disclaimers, and limitations in the end user license agreement accompanying
  13:.\Generated_Source\PSoC4/BLE_1_ias.c **** the software package with which this file was provided.
  14:.\Generated_Source\PSoC4/BLE_1_ias.c **** *******************************************************************************/
  15:.\Generated_Source\PSoC4/BLE_1_ias.c **** 
  16:.\Generated_Source\PSoC4/BLE_1_ias.c **** 
  17:.\Generated_Source\PSoC4/BLE_1_ias.c **** #include "BLE_1_eventHandler.h"
  18:.\Generated_Source\PSoC4/BLE_1_ias.c **** 
  19:.\Generated_Source\PSoC4/BLE_1_ias.c **** 
  20:.\Generated_Source\PSoC4/BLE_1_ias.c **** #ifdef CYBLE_IAS_SERVER
ARM GAS  C:\Users\JFDuval\AppData\Local\Temp\ccgaWq6k.s 			page 2


  21:.\Generated_Source\PSoC4/BLE_1_ias.c **** 
  22:.\Generated_Source\PSoC4/BLE_1_ias.c **** static CYBLE_CALLBACK_T CyBle_IasApplCallback = NULL;
  23:.\Generated_Source\PSoC4/BLE_1_ias.c **** 
  24:.\Generated_Source\PSoC4/BLE_1_ias.c **** #endif /* CYBLE_IAS_SERVER */
  25:.\Generated_Source\PSoC4/BLE_1_ias.c **** 
  26:.\Generated_Source\PSoC4/BLE_1_ias.c **** #ifdef CYBLE_IAS_SERVER
  27:.\Generated_Source\PSoC4/BLE_1_ias.c **** 
  28:.\Generated_Source\PSoC4/BLE_1_ias.c **** const CYBLE_IASS_T cyBle_iass =
  29:.\Generated_Source\PSoC4/BLE_1_ias.c **** {
  30:.\Generated_Source\PSoC4/BLE_1_ias.c ****     0x000Cu,    /* Handle of the IAS service */
  31:.\Generated_Source\PSoC4/BLE_1_ias.c ****     0x000Eu,    /* Handle of the Alert Level characteristic */
  32:.\Generated_Source\PSoC4/BLE_1_ias.c **** };
  33:.\Generated_Source\PSoC4/BLE_1_ias.c **** 
  34:.\Generated_Source\PSoC4/BLE_1_ias.c **** #endif /* (CYBLE_IAS_SERVER) */
  35:.\Generated_Source\PSoC4/BLE_1_ias.c **** 
  36:.\Generated_Source\PSoC4/BLE_1_ias.c **** #ifdef CYBLE_IAS_CLIENT
  37:.\Generated_Source\PSoC4/BLE_1_ias.c **** 
  38:.\Generated_Source\PSoC4/BLE_1_ias.c **** CYBLE_IASC_T cyBle_iasc;
  39:.\Generated_Source\PSoC4/BLE_1_ias.c **** 
  40:.\Generated_Source\PSoC4/BLE_1_ias.c **** #endif /* (CYBLE_IAS_CLIENT) */
  41:.\Generated_Source\PSoC4/BLE_1_ias.c **** 
  42:.\Generated_Source\PSoC4/BLE_1_ias.c **** 
  43:.\Generated_Source\PSoC4/BLE_1_ias.c **** /****************************************************************************** 
  44:.\Generated_Source\PSoC4/BLE_1_ias.c **** ##Function Name: CyBle_IasInit
  45:.\Generated_Source\PSoC4/BLE_1_ias.c **** *******************************************************************************
  46:.\Generated_Source\PSoC4/BLE_1_ias.c **** 
  47:.\Generated_Source\PSoC4/BLE_1_ias.c **** Summary:
  48:.\Generated_Source\PSoC4/BLE_1_ias.c ****  This function initializes the Immediate Alert Service.
  49:.\Generated_Source\PSoC4/BLE_1_ias.c **** 
  50:.\Generated_Source\PSoC4/BLE_1_ias.c **** Parameters:
  51:.\Generated_Source\PSoC4/BLE_1_ias.c ****  None
  52:.\Generated_Source\PSoC4/BLE_1_ias.c **** 
  53:.\Generated_Source\PSoC4/BLE_1_ias.c **** Return:
  54:.\Generated_Source\PSoC4/BLE_1_ias.c ****  None
  55:.\Generated_Source\PSoC4/BLE_1_ias.c **** 
  56:.\Generated_Source\PSoC4/BLE_1_ias.c **** ******************************************************************************/
  57:.\Generated_Source\PSoC4/BLE_1_ias.c **** void CyBle_IasInit(void)
  58:.\Generated_Source\PSoC4/BLE_1_ias.c **** {
  38              		.loc 1 58 0
  39              		.cfi_startproc
  40 0000 80B5     		push	{r7, lr}
  41              		.cfi_def_cfa_offset 8
  42              		.cfi_offset 7, -8
  43              		.cfi_offset 14, -4
  44 0002 00AF     		add	r7, sp, #0
  45              		.cfi_def_cfa_register 7
  59:.\Generated_Source\PSoC4/BLE_1_ias.c **** #ifdef CYBLE_IAS_CLIENT
  60:.\Generated_Source\PSoC4/BLE_1_ias.c **** 
  61:.\Generated_Source\PSoC4/BLE_1_ias.c ****     cyBle_iasc.alertLevelChar.valueHandle = CYBLE_GATT_INVALID_ATTR_HANDLE_VALUE;
  62:.\Generated_Source\PSoC4/BLE_1_ias.c **** 
  63:.\Generated_Source\PSoC4/BLE_1_ias.c **** #endif /* (CYBLE_IAS_CLIENT) */
  64:.\Generated_Source\PSoC4/BLE_1_ias.c **** }
  46              		.loc 1 64 0
  47 0004 BD46     		mov	sp, r7
  48              		@ sp needed
  49 0006 80BD     		pop	{r7, pc}
  50              		.cfi_endproc
ARM GAS  C:\Users\JFDuval\AppData\Local\Temp\ccgaWq6k.s 			page 3


  51              	.LFE2:
  52              		.size	CyBle_IasInit, .-CyBle_IasInit
  53              		.section	.text.CyBle_IasRegisterAttrCallback,"ax",%progbits
  54              		.align	2
  55              		.global	CyBle_IasRegisterAttrCallback
  56              		.code	16
  57              		.thumb_func
  58              		.type	CyBle_IasRegisterAttrCallback, %function
  59              	CyBle_IasRegisterAttrCallback:
  60              	.LFB3:
  65:.\Generated_Source\PSoC4/BLE_1_ias.c **** 
  66:.\Generated_Source\PSoC4/BLE_1_ias.c **** 
  67:.\Generated_Source\PSoC4/BLE_1_ias.c **** #ifdef CYBLE_IAS_SERVER
  68:.\Generated_Source\PSoC4/BLE_1_ias.c **** 
  69:.\Generated_Source\PSoC4/BLE_1_ias.c **** /****************************************************************************** 
  70:.\Generated_Source\PSoC4/BLE_1_ias.c **** ##Function Name: CyBle_IasRegisterAttrCallback
  71:.\Generated_Source\PSoC4/BLE_1_ias.c **** *******************************************************************************
  72:.\Generated_Source\PSoC4/BLE_1_ias.c **** 
  73:.\Generated_Source\PSoC4/BLE_1_ias.c **** Summary:
  74:.\Generated_Source\PSoC4/BLE_1_ias.c ****  Registers callback function for service specific attribute operations.
  75:.\Generated_Source\PSoC4/BLE_1_ias.c **** 
  76:.\Generated_Source\PSoC4/BLE_1_ias.c **** Parameters:
  77:.\Generated_Source\PSoC4/BLE_1_ias.c ****  callbackFunc: An application layer event callback function to receive 
  78:.\Generated_Source\PSoC4/BLE_1_ias.c ****                     events from the BLE Component. The definition of 
  79:.\Generated_Source\PSoC4/BLE_1_ias.c ****                     CYBLE_CALLBACK_T for IAS Service is,
  80:.\Generated_Source\PSoC4/BLE_1_ias.c ****             
  81:.\Generated_Source\PSoC4/BLE_1_ias.c ****                     typedef void (* CYBLE_CALLBACK_T) (uint32 eventCode, 
  82:.\Generated_Source\PSoC4/BLE_1_ias.c ****                                                        void *eventParam)
  83:.\Generated_Source\PSoC4/BLE_1_ias.c **** 
  84:.\Generated_Source\PSoC4/BLE_1_ias.c ****                     * eventCode indicates the event that triggered this 
  85:.\Generated_Source\PSoC4/BLE_1_ias.c ****                       callback (e.g. CYBLE_EVT_IASS_NOTIFICATION_ENABLED).
  86:.\Generated_Source\PSoC4/BLE_1_ias.c ****                     * eventParam contains the parameters corresponding to the 
  87:.\Generated_Source\PSoC4/BLE_1_ias.c ****                       current event. (e.g. pointer to CYBLE_IAS_CHAR_VALUE_T
  88:.\Generated_Source\PSoC4/BLE_1_ias.c ****                       structure that contains details of the characteristic 
  89:.\Generated_Source\PSoC4/BLE_1_ias.c ****                       for which notification enabled event was triggered).
  90:.\Generated_Source\PSoC4/BLE_1_ias.c **** Return:
  91:.\Generated_Source\PSoC4/BLE_1_ias.c ****  None
  92:.\Generated_Source\PSoC4/BLE_1_ias.c **** 
  93:.\Generated_Source\PSoC4/BLE_1_ias.c **** Side Effects:
  94:.\Generated_Source\PSoC4/BLE_1_ias.c ****  The *eventParams in the callback function should not be used by the
  95:.\Generated_Source\PSoC4/BLE_1_ias.c ****  application once the callback function execution is finished. Otherwise 
  96:.\Generated_Source\PSoC4/BLE_1_ias.c ****  this data may become corrupted.
  97:.\Generated_Source\PSoC4/BLE_1_ias.c **** Note:
  98:.\Generated_Source\PSoC4/BLE_1_ias.c ****  IAS only has events for the GATT server. There are no events for the GATT 
  99:.\Generated_Source\PSoC4/BLE_1_ias.c ****  client since the client sends data without waiting for response. Therefore 
 100:.\Generated_Source\PSoC4/BLE_1_ias.c ****  there is no need to register a callback through CyBle_IasRegisterAttrCallback
 101:.\Generated_Source\PSoC4/BLE_1_ias.c ****  for an IAS GATT client.
 102:.\Generated_Source\PSoC4/BLE_1_ias.c **** 
 103:.\Generated_Source\PSoC4/BLE_1_ias.c **** ******************************************************************************/
 104:.\Generated_Source\PSoC4/BLE_1_ias.c **** void CyBle_IasRegisterAttrCallback(CYBLE_CALLBACK_T callbackFunc)
 105:.\Generated_Source\PSoC4/BLE_1_ias.c **** {
  61              		.loc 1 105 0
  62              		.cfi_startproc
  63 0000 80B5     		push	{r7, lr}
  64              		.cfi_def_cfa_offset 8
  65              		.cfi_offset 7, -8
  66              		.cfi_offset 14, -4
ARM GAS  C:\Users\JFDuval\AppData\Local\Temp\ccgaWq6k.s 			page 4


  67 0002 82B0     		sub	sp, sp, #8
  68              		.cfi_def_cfa_offset 16
  69 0004 00AF     		add	r7, sp, #0
  70              		.cfi_def_cfa_register 7
  71 0006 7860     		str	r0, [r7, #4]
 106:.\Generated_Source\PSoC4/BLE_1_ias.c ****     CyBle_IasApplCallback = callbackFunc;
  72              		.loc 1 106 0
  73 0008 024B     		ldr	r3, .L3
  74 000a 7A68     		ldr	r2, [r7, #4]
  75 000c 1A60     		str	r2, [r3]
 107:.\Generated_Source\PSoC4/BLE_1_ias.c **** }
  76              		.loc 1 107 0
  77 000e BD46     		mov	sp, r7
  78 0010 02B0     		add	sp, sp, #8
  79              		@ sp needed
  80 0012 80BD     		pop	{r7, pc}
  81              	.L4:
  82              		.align	2
  83              	.L3:
  84 0014 00000000 		.word	CyBle_IasApplCallback
  85              		.cfi_endproc
  86              	.LFE3:
  87              		.size	CyBle_IasRegisterAttrCallback, .-CyBle_IasRegisterAttrCallback
  88              		.section	.text.CyBle_IassDisconnectEventHandler,"ax",%progbits
  89              		.align	2
  90              		.global	CyBle_IassDisconnectEventHandler
  91              		.code	16
  92              		.thumb_func
  93              		.type	CyBle_IassDisconnectEventHandler, %function
  94              	CyBle_IassDisconnectEventHandler:
  95              	.LFB4:
 108:.\Generated_Source\PSoC4/BLE_1_ias.c **** 
 109:.\Generated_Source\PSoC4/BLE_1_ias.c **** 
 110:.\Generated_Source\PSoC4/BLE_1_ias.c **** /****************************************************************************** 
 111:.\Generated_Source\PSoC4/BLE_1_ias.c **** ##Function Name: CyBle_IassDisconnectEventHandler
 112:.\Generated_Source\PSoC4/BLE_1_ias.c **** *******************************************************************************
 113:.\Generated_Source\PSoC4/BLE_1_ias.c **** 
 114:.\Generated_Source\PSoC4/BLE_1_ias.c **** Summary:
 115:.\Generated_Source\PSoC4/BLE_1_ias.c ****  Handles the Disconnection Indication Event for the Immediate Alert service.
 116:.\Generated_Source\PSoC4/BLE_1_ias.c **** 
 117:.\Generated_Source\PSoC4/BLE_1_ias.c **** Parameters:
 118:.\Generated_Source\PSoC4/BLE_1_ias.c ****  None
 119:.\Generated_Source\PSoC4/BLE_1_ias.c **** 
 120:.\Generated_Source\PSoC4/BLE_1_ias.c **** Return:
 121:.\Generated_Source\PSoC4/BLE_1_ias.c ****  None
 122:.\Generated_Source\PSoC4/BLE_1_ias.c **** 
 123:.\Generated_Source\PSoC4/BLE_1_ias.c **** ******************************************************************************/
 124:.\Generated_Source\PSoC4/BLE_1_ias.c **** void CyBle_IassDisconnectEventHandler(void)
 125:.\Generated_Source\PSoC4/BLE_1_ias.c **** {
  96              		.loc 1 125 0
  97              		.cfi_startproc
  98 0000 80B5     		push	{r7, lr}
  99              		.cfi_def_cfa_offset 8
 100              		.cfi_offset 7, -8
 101              		.cfi_offset 14, -4
 102 0002 84B0     		sub	sp, sp, #16
 103              		.cfi_def_cfa_offset 24
ARM GAS  C:\Users\JFDuval\AppData\Local\Temp\ccgaWq6k.s 			page 5


 104 0004 00AF     		add	r7, sp, #0
 105              		.cfi_def_cfa_register 7
 126:.\Generated_Source\PSoC4/BLE_1_ias.c ****     uint8 tmpAlertLevel = CYBLE_NO_ALERT;
 106              		.loc 1 126 0
 107 0006 3B1C     		mov	r3, r7
 108 0008 0F33     		add	r3, r3, #15
 109 000a 0022     		mov	r2, #0
 110 000c 1A70     		strb	r2, [r3]
 127:.\Generated_Source\PSoC4/BLE_1_ias.c ****     CYBLE_GATT_HANDLE_VALUE_PAIR_T handleVal;
 128:.\Generated_Source\PSoC4/BLE_1_ias.c ****     
 129:.\Generated_Source\PSoC4/BLE_1_ias.c ****     handleVal.attrHandle = cyBle_iass.alertLevelCharHandle;
 111              		.loc 1 129 0
 112 000e 0E22     		mov	r2, #14
 113 0010 3B1C     		mov	r3, r7
 114 0012 1A81     		strh	r2, [r3, #8]
 130:.\Generated_Source\PSoC4/BLE_1_ias.c ****     handleVal.value.val = &tmpAlertLevel;
 115              		.loc 1 130 0
 116 0014 3B1C     		mov	r3, r7
 117 0016 3A1C     		mov	r2, r7
 118 0018 0F32     		add	r2, r2, #15
 119 001a 1A60     		str	r2, [r3]
 131:.\Generated_Source\PSoC4/BLE_1_ias.c ****     handleVal.value.len = CYBLE_IAS_ALERT_LEVEL_SIZE;
 120              		.loc 1 131 0
 121 001c 3B1C     		mov	r3, r7
 122 001e 0122     		mov	r2, #1
 123 0020 9A80     		strh	r2, [r3, #4]
 132:.\Generated_Source\PSoC4/BLE_1_ias.c ****     
 133:.\Generated_Source\PSoC4/BLE_1_ias.c ****     /* Set alert level to "No Alert" per IAS spec */
 134:.\Generated_Source\PSoC4/BLE_1_ias.c ****     (void) CyBle_GattsWriteAttributeValue(&handleVal, 0u, NULL, CYBLE_GATT_DB_LOCALLY_INITIATED);
 124              		.loc 1 134 0
 125 0022 3B1C     		mov	r3, r7
 126 0024 181C     		mov	r0, r3
 127 0026 0021     		mov	r1, #0
 128 0028 0022     		mov	r2, #0
 129 002a 0023     		mov	r3, #0
 130 002c FFF7FEFF 		bl	CyBle_GattsWriteAttributeValue
 135:.\Generated_Source\PSoC4/BLE_1_ias.c **** }
 131              		.loc 1 135 0
 132 0030 BD46     		mov	sp, r7
 133 0032 04B0     		add	sp, sp, #16
 134              		@ sp needed
 135 0034 80BD     		pop	{r7, pc}
 136              		.cfi_endproc
 137              	.LFE4:
 138              		.size	CyBle_IassDisconnectEventHandler, .-CyBle_IassDisconnectEventHandler
 139 0036 C046     		.section	.text.CyBle_IassWriteCmdEventHandler,"ax",%progbits
 140              		.align	2
 141              		.global	CyBle_IassWriteCmdEventHandler
 142              		.code	16
 143              		.thumb_func
 144              		.type	CyBle_IassWriteCmdEventHandler, %function
 145              	CyBle_IassWriteCmdEventHandler:
 146              	.LFB5:
 136:.\Generated_Source\PSoC4/BLE_1_ias.c **** 
 137:.\Generated_Source\PSoC4/BLE_1_ias.c **** 
 138:.\Generated_Source\PSoC4/BLE_1_ias.c **** /****************************************************************************** 
 139:.\Generated_Source\PSoC4/BLE_1_ias.c **** ##Function Name: CyBle_IassWriteCmdEventHandler
ARM GAS  C:\Users\JFDuval\AppData\Local\Temp\ccgaWq6k.s 			page 6


 140:.\Generated_Source\PSoC4/BLE_1_ias.c **** *******************************************************************************
 141:.\Generated_Source\PSoC4/BLE_1_ias.c **** 
 142:.\Generated_Source\PSoC4/BLE_1_ias.c **** Summary:
 143:.\Generated_Source\PSoC4/BLE_1_ias.c ****  Handles the Write Without Response Request Event for the Immediate Alert 
 144:.\Generated_Source\PSoC4/BLE_1_ias.c ****  Service.
 145:.\Generated_Source\PSoC4/BLE_1_ias.c **** 
 146:.\Generated_Source\PSoC4/BLE_1_ias.c **** Parameters:
 147:.\Generated_Source\PSoC4/BLE_1_ias.c ****  CYBLE_GATTS_WRITE_CMD_REQ_PARAM_T * eventParam: The pointer to a data structure
 148:.\Generated_Source\PSoC4/BLE_1_ias.c ****                                                    specified by the event.
 149:.\Generated_Source\PSoC4/BLE_1_ias.c **** 
 150:.\Generated_Source\PSoC4/BLE_1_ias.c **** Return:
 151:.\Generated_Source\PSoC4/BLE_1_ias.c ****  None
 152:.\Generated_Source\PSoC4/BLE_1_ias.c **** 
 153:.\Generated_Source\PSoC4/BLE_1_ias.c **** ******************************************************************************/
 154:.\Generated_Source\PSoC4/BLE_1_ias.c **** void CyBle_IassWriteCmdEventHandler(CYBLE_GATTS_WRITE_CMD_REQ_PARAM_T *eventParam)
 155:.\Generated_Source\PSoC4/BLE_1_ias.c **** {
 147              		.loc 1 155 0
 148              		.cfi_startproc
 149 0000 80B5     		push	{r7, lr}
 150              		.cfi_def_cfa_offset 8
 151              		.cfi_offset 7, -8
 152              		.cfi_offset 14, -4
 153 0002 84B0     		sub	sp, sp, #16
 154              		.cfi_def_cfa_offset 24
 155 0004 00AF     		add	r7, sp, #0
 156              		.cfi_def_cfa_register 7
 157 0006 7860     		str	r0, [r7, #4]
 156:.\Generated_Source\PSoC4/BLE_1_ias.c ****     CYBLE_IAS_CHAR_VALUE_T wrCmdParam;
 157:.\Generated_Source\PSoC4/BLE_1_ias.c ****     
 158:.\Generated_Source\PSoC4/BLE_1_ias.c ****     if(NULL != CyBle_IasApplCallback)
 158              		.loc 1 158 0
 159 0008 1F4B     		ldr	r3, .L8
 160 000a 1B68     		ldr	r3, [r3]
 161 000c 002B     		cmp	r3, #0
 162 000e 38D0     		beq	.L6
 159:.\Generated_Source\PSoC4/BLE_1_ias.c ****     {
 160:.\Generated_Source\PSoC4/BLE_1_ias.c ****         /* Check if attribute handle is handle of Alert Level characteristic of
 161:.\Generated_Source\PSoC4/BLE_1_ias.c ****            Immediate Alert service. */
 162:.\Generated_Source\PSoC4/BLE_1_ias.c ****         if((cyBle_iass.alertLevelCharHandle == eventParam->handleValPair.attrHandle) &&
 163              		.loc 1 162 0
 164 0010 0E22     		mov	r2, #14
 165 0012 7B68     		ldr	r3, [r7, #4]
 166 0014 9B89     		ldrh	r3, [r3, #12]
 167 0016 9A42     		cmp	r2, r3
 168 0018 33D1     		bne	.L6
 163:.\Generated_Source\PSoC4/BLE_1_ias.c ****             (CYBLE_IAS_ALERT_LEVEL_SIZE == eventParam->handleValPair.value.len) &&
 169              		.loc 1 163 0 discriminator 1
 170 001a 7B68     		ldr	r3, [r7, #4]
 171 001c 1B89     		ldrh	r3, [r3, #8]
 162:.\Generated_Source\PSoC4/BLE_1_ias.c ****         if((cyBle_iass.alertLevelCharHandle == eventParam->handleValPair.attrHandle) &&
 172              		.loc 1 162 0 discriminator 1
 173 001e 012B     		cmp	r3, #1
 174 0020 2FD1     		bne	.L6
 164:.\Generated_Source\PSoC4/BLE_1_ias.c ****                 (CYBLE_HIGH_ALERT >= eventParam->handleValPair.value.val[0u]))
 175              		.loc 1 164 0
 176 0022 7B68     		ldr	r3, [r7, #4]
 177 0024 5B68     		ldr	r3, [r3, #4]
ARM GAS  C:\Users\JFDuval\AppData\Local\Temp\ccgaWq6k.s 			page 7


 178 0026 1B78     		ldrb	r3, [r3]
 163:.\Generated_Source\PSoC4/BLE_1_ias.c ****             (CYBLE_IAS_ALERT_LEVEL_SIZE == eventParam->handleValPair.value.len) &&
 179              		.loc 1 163 0
 180 0028 022B     		cmp	r3, #2
 181 002a 2AD8     		bhi	.L6
 165:.\Generated_Source\PSoC4/BLE_1_ias.c ****         {   
 166:.\Generated_Source\PSoC4/BLE_1_ias.c ****             /* Input parameters validation passed, so save Alert Level */
 167:.\Generated_Source\PSoC4/BLE_1_ias.c ****             if(CYBLE_GATT_ERR_NONE ==
 168:.\Generated_Source\PSoC4/BLE_1_ias.c ****                 CyBle_GattsWriteAttributeValue(&eventParam->handleValPair, 
 182              		.loc 1 168 0
 183 002c 7B68     		ldr	r3, [r7, #4]
 184 002e 1A1D     		add	r2, r3, #4
 185 0030 7B68     		ldr	r3, [r7, #4]
 186 0032 101C     		mov	r0, r2
 187 0034 0021     		mov	r1, #0
 188 0036 1A1C     		mov	r2, r3
 189 0038 4023     		mov	r3, #64
 190 003a FFF7FEFF 		bl	CyBle_GattsWriteAttributeValue
 191 003e 031C     		mov	r3, r0
 167:.\Generated_Source\PSoC4/BLE_1_ias.c ****             if(CYBLE_GATT_ERR_NONE ==
 192              		.loc 1 167 0
 193 0040 002B     		cmp	r3, #0
 194 0042 1ED1     		bne	.L6
 169:.\Generated_Source\PSoC4/BLE_1_ias.c ****                                                0u, 
 170:.\Generated_Source\PSoC4/BLE_1_ias.c ****                                                &eventParam->connHandle,
 171:.\Generated_Source\PSoC4/BLE_1_ias.c ****                                                CYBLE_GATT_DB_PEER_INITIATED))
 172:.\Generated_Source\PSoC4/BLE_1_ias.c ****             {
 173:.\Generated_Source\PSoC4/BLE_1_ias.c ****                 wrCmdParam.connHandle = eventParam->connHandle;
 195              		.loc 1 173 0
 196 0044 3B1C     		mov	r3, r7
 197 0046 0833     		add	r3, r3, #8
 198 0048 7A68     		ldr	r2, [r7, #4]
 199 004a 1288     		ldrh	r2, [r2]
 200 004c 1A80     		strh	r2, [r3]
 174:.\Generated_Source\PSoC4/BLE_1_ias.c ****                 wrCmdParam.charIndex = CYBLE_IAS_ALERT_LEVEL;
 201              		.loc 1 174 0
 202 004e 3B1C     		mov	r3, r7
 203 0050 0833     		add	r3, r3, #8
 204 0052 0022     		mov	r2, #0
 205 0054 9A70     		strb	r2, [r3, #2]
 175:.\Generated_Source\PSoC4/BLE_1_ias.c ****                 wrCmdParam.value = &eventParam->handleValPair.value;
 206              		.loc 1 175 0
 207 0056 7B68     		ldr	r3, [r7, #4]
 208 0058 1A1D     		add	r2, r3, #4
 209 005a 3B1C     		mov	r3, r7
 210 005c 0833     		add	r3, r3, #8
 211 005e 5A60     		str	r2, [r3, #4]
 176:.\Generated_Source\PSoC4/BLE_1_ias.c ****                 
 177:.\Generated_Source\PSoC4/BLE_1_ias.c ****                 /* Send callback to user if no error occurred while writing Alert Level */
 178:.\Generated_Source\PSoC4/BLE_1_ias.c ****                 CyBle_IasApplCallback((uint32) CYBLE_EVT_IASS_WRITE_CHAR_CMD, (void *) &wrCmdParam)
 212              		.loc 1 178 0
 213 0060 094B     		ldr	r3, .L8
 214 0062 1B68     		ldr	r3, [r3]
 215 0064 C222     		mov	r2, #194
 216 0066 5100     		lsl	r1, r2, #1
 217 0068 3A1C     		mov	r2, r7
 218 006a 0832     		add	r2, r2, #8
ARM GAS  C:\Users\JFDuval\AppData\Local\Temp\ccgaWq6k.s 			page 8


 219 006c 081C     		mov	r0, r1
 220 006e 111C     		mov	r1, r2
 221 0070 9847     		blx	r3
 179:.\Generated_Source\PSoC4/BLE_1_ias.c ****                 cyBle_eventHandlerFlag &= (uint8) (~CYBLE_CALLBACK);
 222              		.loc 1 179 0
 223 0072 064B     		ldr	r3, .L8+4
 224 0074 1B78     		ldrb	r3, [r3]
 225 0076 DBB2     		uxtb	r3, r3
 226 0078 0122     		mov	r2, #1
 227 007a 9343     		bic	r3, r2
 228 007c DAB2     		uxtb	r2, r3
 229 007e 034B     		ldr	r3, .L8+4
 230 0080 1A70     		strb	r2, [r3]
 231              	.L6:
 180:.\Generated_Source\PSoC4/BLE_1_ias.c ****             }
 181:.\Generated_Source\PSoC4/BLE_1_ias.c ****         }
 182:.\Generated_Source\PSoC4/BLE_1_ias.c ****         /* As this handler handles Write Without Response request the error response
 183:.\Generated_Source\PSoC4/BLE_1_ias.c ****           can't be sent for the Client. The erroneous value will be with
 184:.\Generated_Source\PSoC4/BLE_1_ias.c ****           CYBLE_EVT_GATTS_WRITE_CMD_REQ event. User will decide how to handle it. */
 185:.\Generated_Source\PSoC4/BLE_1_ias.c ****     }
 186:.\Generated_Source\PSoC4/BLE_1_ias.c **** }
 232              		.loc 1 186 0
 233 0082 BD46     		mov	sp, r7
 234 0084 04B0     		add	sp, sp, #16
 235              		@ sp needed
 236 0086 80BD     		pop	{r7, pc}
 237              	.L9:
 238              		.align	2
 239              	.L8:
 240 0088 00000000 		.word	CyBle_IasApplCallback
 241 008c 00000000 		.word	cyBle_eventHandlerFlag
 242              		.cfi_endproc
 243              	.LFE5:
 244              		.size	CyBle_IassWriteCmdEventHandler, .-CyBle_IassWriteCmdEventHandler
 245              		.section	.text.CyBle_IassGetCharacteristicValue,"ax",%progbits
 246              		.align	2
 247              		.global	CyBle_IassGetCharacteristicValue
 248              		.code	16
 249              		.thumb_func
 250              		.type	CyBle_IassGetCharacteristicValue, %function
 251              	CyBle_IassGetCharacteristicValue:
 252              	.LFB6:
 187:.\Generated_Source\PSoC4/BLE_1_ias.c **** 
 188:.\Generated_Source\PSoC4/BLE_1_ias.c **** 
 189:.\Generated_Source\PSoC4/BLE_1_ias.c **** /****************************************************************************** 
 190:.\Generated_Source\PSoC4/BLE_1_ias.c **** ##Function Name: CyBle_IassGetCharacteristicValue
 191:.\Generated_Source\PSoC4/BLE_1_ias.c **** *******************************************************************************
 192:.\Generated_Source\PSoC4/BLE_1_ias.c **** 
 193:.\Generated_Source\PSoC4/BLE_1_ias.c **** Summary:
 194:.\Generated_Source\PSoC4/BLE_1_ias.c ****  Gets the Alert Level characteristic value of the service, which is identified
 195:.\Generated_Source\PSoC4/BLE_1_ias.c ****  by charIndex.
 196:.\Generated_Source\PSoC4/BLE_1_ias.c **** 
 197:.\Generated_Source\PSoC4/BLE_1_ias.c **** Parameters:
 198:.\Generated_Source\PSoC4/BLE_1_ias.c ****  charIndex: The index of the Alert Level characteristic.
 199:.\Generated_Source\PSoC4/BLE_1_ias.c ****  attrSize: The size of the Alert Level characteristic value attribute.
 200:.\Generated_Source\PSoC4/BLE_1_ias.c ****  *attrValue: The pointer to the location where the Alert Level characteristic
 201:.\Generated_Source\PSoC4/BLE_1_ias.c ****               value data should b stored.
ARM GAS  C:\Users\JFDuval\AppData\Local\Temp\ccgaWq6k.s 			page 9


 202:.\Generated_Source\PSoC4/BLE_1_ias.c **** 
 203:.\Generated_Source\PSoC4/BLE_1_ias.c **** Return:
 204:.\Generated_Source\PSoC4/BLE_1_ias.c ****  Return value is of type CYBLE_API_RESULT_T.
 205:.\Generated_Source\PSoC4/BLE_1_ias.c ****   * CYBLE_ERROR_OK - The characteristic value was read successfully
 206:.\Generated_Source\PSoC4/BLE_1_ias.c ****   * CYBLE_ERROR_INVALID_PARAMETER - Validation of the input parameters failed
 207:.\Generated_Source\PSoC4/BLE_1_ias.c **** 
 208:.\Generated_Source\PSoC4/BLE_1_ias.c **** ******************************************************************************/
 209:.\Generated_Source\PSoC4/BLE_1_ias.c **** CYBLE_API_RESULT_T CyBle_IassGetCharacteristicValue(CYBLE_IAS_CHAR_INDEX_T charIndex, uint8 attrSiz
 210:.\Generated_Source\PSoC4/BLE_1_ias.c **** {
 253              		.loc 1 210 0
 254              		.cfi_startproc
 255 0000 80B5     		push	{r7, lr}
 256              		.cfi_def_cfa_offset 8
 257              		.cfi_offset 7, -8
 258              		.cfi_offset 14, -4
 259 0002 86B0     		sub	sp, sp, #24
 260              		.cfi_def_cfa_offset 32
 261 0004 00AF     		add	r7, sp, #0
 262              		.cfi_def_cfa_register 7
 263 0006 3A60     		str	r2, [r7]
 264 0008 FB1D     		add	r3, r7, #7
 265 000a 021C     		add	r2, r0, #0
 266 000c 1A70     		strb	r2, [r3]
 267 000e BB1D     		add	r3, r7, #6
 268 0010 0A1C     		add	r2, r1, #0
 269 0012 1A70     		strb	r2, [r3]
 211:.\Generated_Source\PSoC4/BLE_1_ias.c ****     CYBLE_GATT_HANDLE_VALUE_PAIR_T iasHandleValuePair;
 212:.\Generated_Source\PSoC4/BLE_1_ias.c ****     CYBLE_API_RESULT_T apiResult = CYBLE_ERROR_INVALID_PARAMETER;
 270              		.loc 1 212 0
 271 0014 3B1C     		mov	r3, r7
 272 0016 1633     		add	r3, r3, #22
 273 0018 0122     		mov	r2, #1
 274 001a 1A80     		strh	r2, [r3]
 213:.\Generated_Source\PSoC4/BLE_1_ias.c **** 
 214:.\Generated_Source\PSoC4/BLE_1_ias.c ****     if((NULL != attrValue) && (CYBLE_IAS_ALERT_LEVEL == charIndex) && (CYBLE_IAS_ALERT_LEVEL_SIZE =
 275              		.loc 1 214 0
 276 001c 3B68     		ldr	r3, [r7]
 277 001e 002B     		cmp	r3, #0
 278 0020 23D0     		beq	.L11
 279              		.loc 1 214 0 is_stmt 0 discriminator 1
 280 0022 FB1D     		add	r3, r7, #7
 281 0024 1B78     		ldrb	r3, [r3]
 282 0026 002B     		cmp	r3, #0
 283 0028 1FD1     		bne	.L11
 284 002a BB1D     		add	r3, r7, #6
 285 002c 1B78     		ldrb	r3, [r3]
 286 002e 012B     		cmp	r3, #1
 287 0030 1BD1     		bne	.L11
 215:.\Generated_Source\PSoC4/BLE_1_ias.c ****     {
 216:.\Generated_Source\PSoC4/BLE_1_ias.c ****         iasHandleValuePair.attrHandle = cyBle_iass.alertLevelCharHandle;
 288              		.loc 1 216 0 is_stmt 1
 289 0032 0E22     		mov	r2, #14
 290 0034 3B1C     		mov	r3, r7
 291 0036 0833     		add	r3, r3, #8
 292 0038 1A81     		strh	r2, [r3, #8]
 217:.\Generated_Source\PSoC4/BLE_1_ias.c ****         iasHandleValuePair.value.len = attrSize;
 293              		.loc 1 217 0
ARM GAS  C:\Users\JFDuval\AppData\Local\Temp\ccgaWq6k.s 			page 10


 294 003a BB1D     		add	r3, r7, #6
 295 003c 1B78     		ldrb	r3, [r3]
 296 003e 9AB2     		uxth	r2, r3
 297 0040 3B1C     		mov	r3, r7
 298 0042 0833     		add	r3, r3, #8
 299 0044 9A80     		strh	r2, [r3, #4]
 218:.\Generated_Source\PSoC4/BLE_1_ias.c ****         iasHandleValuePair.value.val = attrValue;
 300              		.loc 1 218 0
 301 0046 3B1C     		mov	r3, r7
 302 0048 0833     		add	r3, r3, #8
 303 004a 3A68     		ldr	r2, [r7]
 304 004c 1A60     		str	r2, [r3]
 219:.\Generated_Source\PSoC4/BLE_1_ias.c ****         
 220:.\Generated_Source\PSoC4/BLE_1_ias.c ****         /* Get Alert Level characteristic value from GATT database */
 221:.\Generated_Source\PSoC4/BLE_1_ias.c ****         if(CYBLE_GATT_ERR_NONE == 
 222:.\Generated_Source\PSoC4/BLE_1_ias.c ****             CyBle_GattsReadAttributeValue(&iasHandleValuePair, NULL, CYBLE_GATT_DB_LOCALLY_INITIATE
 305              		.loc 1 222 0
 306 004e 3B1C     		mov	r3, r7
 307 0050 0833     		add	r3, r3, #8
 308 0052 181C     		mov	r0, r3
 309 0054 0021     		mov	r1, #0
 310 0056 0022     		mov	r2, #0
 311 0058 FFF7FEFF 		bl	CyBle_GattsReadAttributeValue
 312 005c 031C     		mov	r3, r0
 221:.\Generated_Source\PSoC4/BLE_1_ias.c ****         if(CYBLE_GATT_ERR_NONE == 
 313              		.loc 1 221 0
 314 005e 002B     		cmp	r3, #0
 315 0060 03D1     		bne	.L11
 223:.\Generated_Source\PSoC4/BLE_1_ias.c ****         {
 224:.\Generated_Source\PSoC4/BLE_1_ias.c ****             /* Indicate success */
 225:.\Generated_Source\PSoC4/BLE_1_ias.c ****             apiResult = CYBLE_ERROR_OK;
 316              		.loc 1 225 0
 317 0062 3B1C     		mov	r3, r7
 318 0064 1633     		add	r3, r3, #22
 319 0066 0022     		mov	r2, #0
 320 0068 1A80     		strh	r2, [r3]
 321              	.L11:
 226:.\Generated_Source\PSoC4/BLE_1_ias.c ****         }
 227:.\Generated_Source\PSoC4/BLE_1_ias.c ****     }
 228:.\Generated_Source\PSoC4/BLE_1_ias.c **** 
 229:.\Generated_Source\PSoC4/BLE_1_ias.c ****     /* Return status */
 230:.\Generated_Source\PSoC4/BLE_1_ias.c ****     return(apiResult);
 322              		.loc 1 230 0
 323 006a 3B1C     		mov	r3, r7
 324 006c 1633     		add	r3, r3, #22
 325 006e 1B88     		ldrh	r3, [r3]
 231:.\Generated_Source\PSoC4/BLE_1_ias.c **** }
 326              		.loc 1 231 0
 327 0070 181C     		mov	r0, r3
 328 0072 BD46     		mov	sp, r7
 329 0074 06B0     		add	sp, sp, #24
 330              		@ sp needed
 331 0076 80BD     		pop	{r7, pc}
 332              		.cfi_endproc
 333              	.LFE6:
 334              		.size	CyBle_IassGetCharacteristicValue, .-CyBle_IassGetCharacteristicValue
 335              		.text
ARM GAS  C:\Users\JFDuval\AppData\Local\Temp\ccgaWq6k.s 			page 11


 336              	.Letext0:
 337              		.file 2 ".\\Generated_Source\\PSoC4\\cytypes.h"
 338              		.file 3 ".\\Generated_Source\\PSoC4\\BLE_1_Stack.h"
 339              		.file 4 ".\\Generated_Source\\PSoC4\\BLE_1_StackGatt.h"
 340              		.file 5 ".\\Generated_Source\\PSoC4\\BLE_1_StackGattServer.h"
 341              		.file 6 ".\\Generated_Source\\PSoC4\\BLE_1.h"
 342              		.file 7 ".\\Generated_Source\\PSoC4\\BLE_1_ias.h"
 343              		.file 8 ".\\Generated_Source\\PSoC4\\BLE_1_eventHandler.h"