ARM GAS  C:\Users\Steven\AppData\Local\Temp\ccGyh3be.s 			page 1


   1              		.cpu cortex-m0
   2              		.fpu softvfp
   3              		.eabi_attribute 20, 1
   4              		.eabi_attribute 21, 1
   5              		.eabi_attribute 23, 3
   6              		.eabi_attribute 24, 1
   7              		.eabi_attribute 25, 1
   8              		.eabi_attribute 26, 1
   9              		.eabi_attribute 30, 6
  10              		.eabi_attribute 34, 0
  11              		.eabi_attribute 18, 4
  12              		.code	16
  13              		.file	"BLE_1_bless_isr.c"
  14              		.text
  15              	.Ltext0:
  16              		.cfi_sections	.debug_frame
  17              		.section	.text.BLE_1_bless_isr_Start,"ax",%progbits
  18              		.align	2
  19              		.global	BLE_1_bless_isr_Start
  20              		.code	16
  21              		.thumb_func
  22              		.type	BLE_1_bless_isr_Start, %function
  23              	BLE_1_bless_isr_Start:
  24              	.LFB2:
  25              		.file 1 ".\\Generated_Source\\PSoC4\\BLE_1_bless_isr.c"
   1:.\Generated_Source\PSoC4/BLE_1_bless_isr.c **** /*******************************************************************************
   2:.\Generated_Source\PSoC4/BLE_1_bless_isr.c **** * File Name: BLE_1_bless_isr.c  
   3:.\Generated_Source\PSoC4/BLE_1_bless_isr.c **** * Version 1.70
   4:.\Generated_Source\PSoC4/BLE_1_bless_isr.c **** *
   5:.\Generated_Source\PSoC4/BLE_1_bless_isr.c **** *  Description:
   6:.\Generated_Source\PSoC4/BLE_1_bless_isr.c **** *   API for controlling the state of an interrupt.
   7:.\Generated_Source\PSoC4/BLE_1_bless_isr.c **** *
   8:.\Generated_Source\PSoC4/BLE_1_bless_isr.c **** *
   9:.\Generated_Source\PSoC4/BLE_1_bless_isr.c **** *  Note:
  10:.\Generated_Source\PSoC4/BLE_1_bless_isr.c **** *
  11:.\Generated_Source\PSoC4/BLE_1_bless_isr.c **** ********************************************************************************
  12:.\Generated_Source\PSoC4/BLE_1_bless_isr.c **** * Copyright 2008-2012, Cypress Semiconductor Corporation.  All rights reserved.
  13:.\Generated_Source\PSoC4/BLE_1_bless_isr.c **** * You may use this file only in accordance with the license, terms, conditions, 
  14:.\Generated_Source\PSoC4/BLE_1_bless_isr.c **** * disclaimers, and limitations in the end user license agreement accompanying 
  15:.\Generated_Source\PSoC4/BLE_1_bless_isr.c **** * the software package with which this file was provided.
  16:.\Generated_Source\PSoC4/BLE_1_bless_isr.c **** *******************************************************************************/
  17:.\Generated_Source\PSoC4/BLE_1_bless_isr.c **** 
  18:.\Generated_Source\PSoC4/BLE_1_bless_isr.c **** 
  19:.\Generated_Source\PSoC4/BLE_1_bless_isr.c **** #include <cydevice_trm.h>
  20:.\Generated_Source\PSoC4/BLE_1_bless_isr.c **** #include <CyLib.h>
  21:.\Generated_Source\PSoC4/BLE_1_bless_isr.c **** #include <BLE_1_bless_isr.h>
  22:.\Generated_Source\PSoC4/BLE_1_bless_isr.c **** 
  23:.\Generated_Source\PSoC4/BLE_1_bless_isr.c **** #if !defined(BLE_1_bless_isr__REMOVED) /* Check for removal by optimization */
  24:.\Generated_Source\PSoC4/BLE_1_bless_isr.c **** 
  25:.\Generated_Source\PSoC4/BLE_1_bless_isr.c **** /*******************************************************************************
  26:.\Generated_Source\PSoC4/BLE_1_bless_isr.c **** *  Place your includes, defines and code here 
  27:.\Generated_Source\PSoC4/BLE_1_bless_isr.c **** ********************************************************************************/
  28:.\Generated_Source\PSoC4/BLE_1_bless_isr.c **** /* `#START BLE_1_bless_isr_intc` */
  29:.\Generated_Source\PSoC4/BLE_1_bless_isr.c **** 
  30:.\Generated_Source\PSoC4/BLE_1_bless_isr.c **** /* `#END` */
  31:.\Generated_Source\PSoC4/BLE_1_bless_isr.c **** 
  32:.\Generated_Source\PSoC4/BLE_1_bless_isr.c **** extern cyisraddress CyRamVectors[CYINT_IRQ_BASE + CY_NUM_INTERRUPTS];
ARM GAS  C:\Users\Steven\AppData\Local\Temp\ccGyh3be.s 			page 2


  33:.\Generated_Source\PSoC4/BLE_1_bless_isr.c **** 
  34:.\Generated_Source\PSoC4/BLE_1_bless_isr.c **** /* Declared in startup, used to set unused interrupts to. */
  35:.\Generated_Source\PSoC4/BLE_1_bless_isr.c **** CY_ISR_PROTO(IntDefaultHandler);
  36:.\Generated_Source\PSoC4/BLE_1_bless_isr.c **** 
  37:.\Generated_Source\PSoC4/BLE_1_bless_isr.c **** 
  38:.\Generated_Source\PSoC4/BLE_1_bless_isr.c **** /*******************************************************************************
  39:.\Generated_Source\PSoC4/BLE_1_bless_isr.c **** * Function Name: BLE_1_bless_isr_Start
  40:.\Generated_Source\PSoC4/BLE_1_bless_isr.c **** ********************************************************************************
  41:.\Generated_Source\PSoC4/BLE_1_bless_isr.c **** *
  42:.\Generated_Source\PSoC4/BLE_1_bless_isr.c **** * Summary:
  43:.\Generated_Source\PSoC4/BLE_1_bless_isr.c **** *  Set up the interrupt and enable it.
  44:.\Generated_Source\PSoC4/BLE_1_bless_isr.c **** *
  45:.\Generated_Source\PSoC4/BLE_1_bless_isr.c **** * Parameters:  
  46:.\Generated_Source\PSoC4/BLE_1_bless_isr.c **** *   None
  47:.\Generated_Source\PSoC4/BLE_1_bless_isr.c **** *
  48:.\Generated_Source\PSoC4/BLE_1_bless_isr.c **** * Return:
  49:.\Generated_Source\PSoC4/BLE_1_bless_isr.c **** *   None
  50:.\Generated_Source\PSoC4/BLE_1_bless_isr.c **** *
  51:.\Generated_Source\PSoC4/BLE_1_bless_isr.c **** *******************************************************************************/
  52:.\Generated_Source\PSoC4/BLE_1_bless_isr.c **** void BLE_1_bless_isr_Start(void)
  53:.\Generated_Source\PSoC4/BLE_1_bless_isr.c **** {
  26              		.loc 1 53 0
  27              		.cfi_startproc
  28 0000 80B5     		push	{r7, lr}
  29              		.cfi_def_cfa_offset 8
  30              		.cfi_offset 7, -8
  31              		.cfi_offset 14, -4
  32 0002 00AF     		add	r7, sp, #0
  33              		.cfi_def_cfa_register 7
  54:.\Generated_Source\PSoC4/BLE_1_bless_isr.c ****     /* For all we know the interrupt is active. */
  55:.\Generated_Source\PSoC4/BLE_1_bless_isr.c ****     BLE_1_bless_isr_Disable();
  34              		.loc 1 55 0
  35 0004 FFF7FEFF 		bl	BLE_1_bless_isr_Disable
  56:.\Generated_Source\PSoC4/BLE_1_bless_isr.c **** 
  57:.\Generated_Source\PSoC4/BLE_1_bless_isr.c ****     /* Set the ISR to point to the BLE_1_bless_isr Interrupt. */
  58:.\Generated_Source\PSoC4/BLE_1_bless_isr.c ****     BLE_1_bless_isr_SetVector(&BLE_1_bless_isr_Interrupt);
  36              		.loc 1 58 0
  37 0008 054B     		ldr	r3, .L2
  38 000a 181C     		mov	r0, r3
  39 000c FFF7FEFF 		bl	BLE_1_bless_isr_SetVector
  59:.\Generated_Source\PSoC4/BLE_1_bless_isr.c **** 
  60:.\Generated_Source\PSoC4/BLE_1_bless_isr.c ****     /* Set the priority. */
  61:.\Generated_Source\PSoC4/BLE_1_bless_isr.c ****     BLE_1_bless_isr_SetPriority((uint8)BLE_1_bless_isr_INTC_PRIOR_NUMBER);
  40              		.loc 1 61 0
  41 0010 0320     		mov	r0, #3
  42 0012 FFF7FEFF 		bl	BLE_1_bless_isr_SetPriority
  62:.\Generated_Source\PSoC4/BLE_1_bless_isr.c **** 
  63:.\Generated_Source\PSoC4/BLE_1_bless_isr.c ****     /* Enable it. */
  64:.\Generated_Source\PSoC4/BLE_1_bless_isr.c ****     BLE_1_bless_isr_Enable();
  43              		.loc 1 64 0
  44 0016 FFF7FEFF 		bl	BLE_1_bless_isr_Enable
  65:.\Generated_Source\PSoC4/BLE_1_bless_isr.c **** }
  45              		.loc 1 65 0
  46 001a BD46     		mov	sp, r7
  47              		@ sp needed
  48 001c 80BD     		pop	{r7, pc}
  49              	.L3:
ARM GAS  C:\Users\Steven\AppData\Local\Temp\ccGyh3be.s 			page 3


  50 001e C046     		.align	2
  51              	.L2:
  52 0020 00000000 		.word	BLE_1_bless_isr_Interrupt
  53              		.cfi_endproc
  54              	.LFE2:
  55              		.size	BLE_1_bless_isr_Start, .-BLE_1_bless_isr_Start
  56              		.section	.text.BLE_1_bless_isr_StartEx,"ax",%progbits
  57              		.align	2
  58              		.global	BLE_1_bless_isr_StartEx
  59              		.code	16
  60              		.thumb_func
  61              		.type	BLE_1_bless_isr_StartEx, %function
  62              	BLE_1_bless_isr_StartEx:
  63              	.LFB3:
  66:.\Generated_Source\PSoC4/BLE_1_bless_isr.c **** 
  67:.\Generated_Source\PSoC4/BLE_1_bless_isr.c **** 
  68:.\Generated_Source\PSoC4/BLE_1_bless_isr.c **** /*******************************************************************************
  69:.\Generated_Source\PSoC4/BLE_1_bless_isr.c **** * Function Name: BLE_1_bless_isr_StartEx
  70:.\Generated_Source\PSoC4/BLE_1_bless_isr.c **** ********************************************************************************
  71:.\Generated_Source\PSoC4/BLE_1_bless_isr.c **** *
  72:.\Generated_Source\PSoC4/BLE_1_bless_isr.c **** * Summary:
  73:.\Generated_Source\PSoC4/BLE_1_bless_isr.c **** *  Set up the interrupt and enable it.
  74:.\Generated_Source\PSoC4/BLE_1_bless_isr.c **** *
  75:.\Generated_Source\PSoC4/BLE_1_bless_isr.c **** * Parameters:  
  76:.\Generated_Source\PSoC4/BLE_1_bless_isr.c **** *   address: Address of the ISR to set in the interrupt vector table.
  77:.\Generated_Source\PSoC4/BLE_1_bless_isr.c **** *
  78:.\Generated_Source\PSoC4/BLE_1_bless_isr.c **** * Return:
  79:.\Generated_Source\PSoC4/BLE_1_bless_isr.c **** *   None
  80:.\Generated_Source\PSoC4/BLE_1_bless_isr.c **** *
  81:.\Generated_Source\PSoC4/BLE_1_bless_isr.c **** *******************************************************************************/
  82:.\Generated_Source\PSoC4/BLE_1_bless_isr.c **** void BLE_1_bless_isr_StartEx(cyisraddress address)
  83:.\Generated_Source\PSoC4/BLE_1_bless_isr.c **** {
  64              		.loc 1 83 0
  65              		.cfi_startproc
  66 0000 80B5     		push	{r7, lr}
  67              		.cfi_def_cfa_offset 8
  68              		.cfi_offset 7, -8
  69              		.cfi_offset 14, -4
  70 0002 82B0     		sub	sp, sp, #8
  71              		.cfi_def_cfa_offset 16
  72 0004 00AF     		add	r7, sp, #0
  73              		.cfi_def_cfa_register 7
  74 0006 7860     		str	r0, [r7, #4]
  84:.\Generated_Source\PSoC4/BLE_1_bless_isr.c ****     /* For all we know the interrupt is active. */
  85:.\Generated_Source\PSoC4/BLE_1_bless_isr.c ****     BLE_1_bless_isr_Disable();
  75              		.loc 1 85 0
  76 0008 FFF7FEFF 		bl	BLE_1_bless_isr_Disable
  86:.\Generated_Source\PSoC4/BLE_1_bless_isr.c **** 
  87:.\Generated_Source\PSoC4/BLE_1_bless_isr.c ****     /* Set the ISR to point to the BLE_1_bless_isr Interrupt. */
  88:.\Generated_Source\PSoC4/BLE_1_bless_isr.c ****     BLE_1_bless_isr_SetVector(address);
  77              		.loc 1 88 0
  78 000c 7B68     		ldr	r3, [r7, #4]
  79 000e 181C     		mov	r0, r3
  80 0010 FFF7FEFF 		bl	BLE_1_bless_isr_SetVector
  89:.\Generated_Source\PSoC4/BLE_1_bless_isr.c **** 
  90:.\Generated_Source\PSoC4/BLE_1_bless_isr.c ****     /* Set the priority. */
  91:.\Generated_Source\PSoC4/BLE_1_bless_isr.c ****     BLE_1_bless_isr_SetPriority((uint8)BLE_1_bless_isr_INTC_PRIOR_NUMBER);
ARM GAS  C:\Users\Steven\AppData\Local\Temp\ccGyh3be.s 			page 4


  81              		.loc 1 91 0
  82 0014 0320     		mov	r0, #3
  83 0016 FFF7FEFF 		bl	BLE_1_bless_isr_SetPriority
  92:.\Generated_Source\PSoC4/BLE_1_bless_isr.c **** 
  93:.\Generated_Source\PSoC4/BLE_1_bless_isr.c ****     /* Enable it. */
  94:.\Generated_Source\PSoC4/BLE_1_bless_isr.c ****     BLE_1_bless_isr_Enable();
  84              		.loc 1 94 0
  85 001a FFF7FEFF 		bl	BLE_1_bless_isr_Enable
  95:.\Generated_Source\PSoC4/BLE_1_bless_isr.c **** }
  86              		.loc 1 95 0
  87 001e BD46     		mov	sp, r7
  88 0020 02B0     		add	sp, sp, #8
  89              		@ sp needed
  90 0022 80BD     		pop	{r7, pc}
  91              		.cfi_endproc
  92              	.LFE3:
  93              		.size	BLE_1_bless_isr_StartEx, .-BLE_1_bless_isr_StartEx
  94              		.section	.text.BLE_1_bless_isr_Stop,"ax",%progbits
  95              		.align	2
  96              		.global	BLE_1_bless_isr_Stop
  97              		.code	16
  98              		.thumb_func
  99              		.type	BLE_1_bless_isr_Stop, %function
 100              	BLE_1_bless_isr_Stop:
 101              	.LFB4:
  96:.\Generated_Source\PSoC4/BLE_1_bless_isr.c **** 
  97:.\Generated_Source\PSoC4/BLE_1_bless_isr.c **** 
  98:.\Generated_Source\PSoC4/BLE_1_bless_isr.c **** /*******************************************************************************
  99:.\Generated_Source\PSoC4/BLE_1_bless_isr.c **** * Function Name: BLE_1_bless_isr_Stop
 100:.\Generated_Source\PSoC4/BLE_1_bless_isr.c **** ********************************************************************************
 101:.\Generated_Source\PSoC4/BLE_1_bless_isr.c **** *
 102:.\Generated_Source\PSoC4/BLE_1_bless_isr.c **** * Summary:
 103:.\Generated_Source\PSoC4/BLE_1_bless_isr.c **** *   Disables and removes the interrupt.
 104:.\Generated_Source\PSoC4/BLE_1_bless_isr.c **** *
 105:.\Generated_Source\PSoC4/BLE_1_bless_isr.c **** * Parameters:  
 106:.\Generated_Source\PSoC4/BLE_1_bless_isr.c **** *
 107:.\Generated_Source\PSoC4/BLE_1_bless_isr.c **** * Return:
 108:.\Generated_Source\PSoC4/BLE_1_bless_isr.c **** *   None
 109:.\Generated_Source\PSoC4/BLE_1_bless_isr.c **** *
 110:.\Generated_Source\PSoC4/BLE_1_bless_isr.c **** *******************************************************************************/
 111:.\Generated_Source\PSoC4/BLE_1_bless_isr.c **** void BLE_1_bless_isr_Stop(void)
 112:.\Generated_Source\PSoC4/BLE_1_bless_isr.c **** {
 102              		.loc 1 112 0
 103              		.cfi_startproc
 104 0000 80B5     		push	{r7, lr}
 105              		.cfi_def_cfa_offset 8
 106              		.cfi_offset 7, -8
 107              		.cfi_offset 14, -4
 108 0002 00AF     		add	r7, sp, #0
 109              		.cfi_def_cfa_register 7
 113:.\Generated_Source\PSoC4/BLE_1_bless_isr.c ****     /* Disable this interrupt. */
 114:.\Generated_Source\PSoC4/BLE_1_bless_isr.c ****     BLE_1_bless_isr_Disable();
 110              		.loc 1 114 0
 111 0004 FFF7FEFF 		bl	BLE_1_bless_isr_Disable
 115:.\Generated_Source\PSoC4/BLE_1_bless_isr.c **** 
 116:.\Generated_Source\PSoC4/BLE_1_bless_isr.c ****     /* Set the ISR to point to the passive one. */
 117:.\Generated_Source\PSoC4/BLE_1_bless_isr.c ****     BLE_1_bless_isr_SetVector(&IntDefaultHandler);
ARM GAS  C:\Users\Steven\AppData\Local\Temp\ccGyh3be.s 			page 5


 112              		.loc 1 117 0
 113 0008 024B     		ldr	r3, .L6
 114 000a 181C     		mov	r0, r3
 115 000c FFF7FEFF 		bl	BLE_1_bless_isr_SetVector
 118:.\Generated_Source\PSoC4/BLE_1_bless_isr.c **** }
 116              		.loc 1 118 0
 117 0010 BD46     		mov	sp, r7
 118              		@ sp needed
 119 0012 80BD     		pop	{r7, pc}
 120              	.L7:
 121              		.align	2
 122              	.L6:
 123 0014 00000000 		.word	IntDefaultHandler
 124              		.cfi_endproc
 125              	.LFE4:
 126              		.size	BLE_1_bless_isr_Stop, .-BLE_1_bless_isr_Stop
 127              		.section	.text.BLE_1_bless_isr_Interrupt,"ax",%progbits
 128              		.align	2
 129              		.global	BLE_1_bless_isr_Interrupt
 130              		.code	16
 131              		.thumb_func
 132              		.type	BLE_1_bless_isr_Interrupt, %function
 133              	BLE_1_bless_isr_Interrupt:
 134              	.LFB5:
 119:.\Generated_Source\PSoC4/BLE_1_bless_isr.c **** 
 120:.\Generated_Source\PSoC4/BLE_1_bless_isr.c **** 
 121:.\Generated_Source\PSoC4/BLE_1_bless_isr.c **** /*******************************************************************************
 122:.\Generated_Source\PSoC4/BLE_1_bless_isr.c **** * Function Name: BLE_1_bless_isr_Interrupt
 123:.\Generated_Source\PSoC4/BLE_1_bless_isr.c **** ********************************************************************************
 124:.\Generated_Source\PSoC4/BLE_1_bless_isr.c **** *
 125:.\Generated_Source\PSoC4/BLE_1_bless_isr.c **** * Summary:
 126:.\Generated_Source\PSoC4/BLE_1_bless_isr.c **** *   The default Interrupt Service Routine for BLE_1_bless_isr.
 127:.\Generated_Source\PSoC4/BLE_1_bless_isr.c **** *
 128:.\Generated_Source\PSoC4/BLE_1_bless_isr.c **** *   Add custom code between the coments to keep the next version of this file
 129:.\Generated_Source\PSoC4/BLE_1_bless_isr.c **** *   from over writting your code.
 130:.\Generated_Source\PSoC4/BLE_1_bless_isr.c **** *
 131:.\Generated_Source\PSoC4/BLE_1_bless_isr.c **** * Parameters:  
 132:.\Generated_Source\PSoC4/BLE_1_bless_isr.c **** *   None
 133:.\Generated_Source\PSoC4/BLE_1_bless_isr.c **** *
 134:.\Generated_Source\PSoC4/BLE_1_bless_isr.c **** * Return:
 135:.\Generated_Source\PSoC4/BLE_1_bless_isr.c **** *   None
 136:.\Generated_Source\PSoC4/BLE_1_bless_isr.c **** *
 137:.\Generated_Source\PSoC4/BLE_1_bless_isr.c **** *******************************************************************************/
 138:.\Generated_Source\PSoC4/BLE_1_bless_isr.c **** CY_ISR(BLE_1_bless_isr_Interrupt)
 139:.\Generated_Source\PSoC4/BLE_1_bless_isr.c **** {
 135              		.loc 1 139 0
 136              		.cfi_startproc
 137 0000 80B5     		push	{r7, lr}
 138              		.cfi_def_cfa_offset 8
 139              		.cfi_offset 7, -8
 140              		.cfi_offset 14, -4
 141 0002 00AF     		add	r7, sp, #0
 142              		.cfi_def_cfa_register 7
 140:.\Generated_Source\PSoC4/BLE_1_bless_isr.c ****     /*  Place your Interrupt code here. */
 141:.\Generated_Source\PSoC4/BLE_1_bless_isr.c ****     /* `#START BLE_1_bless_isr_Interrupt` */
 142:.\Generated_Source\PSoC4/BLE_1_bless_isr.c **** 
 143:.\Generated_Source\PSoC4/BLE_1_bless_isr.c ****     /* `#END` */
ARM GAS  C:\Users\Steven\AppData\Local\Temp\ccGyh3be.s 			page 6


 144:.\Generated_Source\PSoC4/BLE_1_bless_isr.c **** }
 143              		.loc 1 144 0
 144 0004 BD46     		mov	sp, r7
 145              		@ sp needed
 146 0006 80BD     		pop	{r7, pc}
 147              		.cfi_endproc
 148              	.LFE5:
 149              		.size	BLE_1_bless_isr_Interrupt, .-BLE_1_bless_isr_Interrupt
 150              		.section	.text.BLE_1_bless_isr_SetVector,"ax",%progbits
 151              		.align	2
 152              		.global	BLE_1_bless_isr_SetVector
 153              		.code	16
 154              		.thumb_func
 155              		.type	BLE_1_bless_isr_SetVector, %function
 156              	BLE_1_bless_isr_SetVector:
 157              	.LFB6:
 145:.\Generated_Source\PSoC4/BLE_1_bless_isr.c **** 
 146:.\Generated_Source\PSoC4/BLE_1_bless_isr.c **** 
 147:.\Generated_Source\PSoC4/BLE_1_bless_isr.c **** /*******************************************************************************
 148:.\Generated_Source\PSoC4/BLE_1_bless_isr.c **** * Function Name: BLE_1_bless_isr_SetVector
 149:.\Generated_Source\PSoC4/BLE_1_bless_isr.c **** ********************************************************************************
 150:.\Generated_Source\PSoC4/BLE_1_bless_isr.c **** *
 151:.\Generated_Source\PSoC4/BLE_1_bless_isr.c **** * Summary:
 152:.\Generated_Source\PSoC4/BLE_1_bless_isr.c **** *   Change the ISR vector for the Interrupt. Note calling BLE_1_bless_isr_Start
 153:.\Generated_Source\PSoC4/BLE_1_bless_isr.c **** *   will override any effect this method would have had. To set the vector 
 154:.\Generated_Source\PSoC4/BLE_1_bless_isr.c **** *   before the component has been started use BLE_1_bless_isr_StartEx instead.
 155:.\Generated_Source\PSoC4/BLE_1_bless_isr.c **** *
 156:.\Generated_Source\PSoC4/BLE_1_bless_isr.c **** * Parameters:
 157:.\Generated_Source\PSoC4/BLE_1_bless_isr.c **** *   address: Address of the ISR to set in the interrupt vector table.
 158:.\Generated_Source\PSoC4/BLE_1_bless_isr.c **** *
 159:.\Generated_Source\PSoC4/BLE_1_bless_isr.c **** * Return:
 160:.\Generated_Source\PSoC4/BLE_1_bless_isr.c **** *   None
 161:.\Generated_Source\PSoC4/BLE_1_bless_isr.c **** *
 162:.\Generated_Source\PSoC4/BLE_1_bless_isr.c **** *******************************************************************************/
 163:.\Generated_Source\PSoC4/BLE_1_bless_isr.c **** void BLE_1_bless_isr_SetVector(cyisraddress address)
 164:.\Generated_Source\PSoC4/BLE_1_bless_isr.c **** {
 158              		.loc 1 164 0
 159              		.cfi_startproc
 160 0000 80B5     		push	{r7, lr}
 161              		.cfi_def_cfa_offset 8
 162              		.cfi_offset 7, -8
 163              		.cfi_offset 14, -4
 164 0002 82B0     		sub	sp, sp, #8
 165              		.cfi_def_cfa_offset 16
 166 0004 00AF     		add	r7, sp, #0
 167              		.cfi_def_cfa_register 7
 168 0006 7860     		str	r0, [r7, #4]
 165:.\Generated_Source\PSoC4/BLE_1_bless_isr.c ****     CyRamVectors[CYINT_IRQ_BASE + BLE_1_bless_isr__INTC_NUMBER] = address;
 169              		.loc 1 165 0
 170 0008 024B     		ldr	r3, .L10
 171 000a 7A68     		ldr	r2, [r7, #4]
 172 000c 1A67     		str	r2, [r3, #112]
 166:.\Generated_Source\PSoC4/BLE_1_bless_isr.c **** }
 173              		.loc 1 166 0
 174 000e BD46     		mov	sp, r7
 175 0010 02B0     		add	sp, sp, #8
 176              		@ sp needed
ARM GAS  C:\Users\Steven\AppData\Local\Temp\ccGyh3be.s 			page 7


 177 0012 80BD     		pop	{r7, pc}
 178              	.L11:
 179              		.align	2
 180              	.L10:
 181 0014 00000000 		.word	CyRamVectors
 182              		.cfi_endproc
 183              	.LFE6:
 184              		.size	BLE_1_bless_isr_SetVector, .-BLE_1_bless_isr_SetVector
 185              		.section	.text.BLE_1_bless_isr_GetVector,"ax",%progbits
 186              		.align	2
 187              		.global	BLE_1_bless_isr_GetVector
 188              		.code	16
 189              		.thumb_func
 190              		.type	BLE_1_bless_isr_GetVector, %function
 191              	BLE_1_bless_isr_GetVector:
 192              	.LFB7:
 167:.\Generated_Source\PSoC4/BLE_1_bless_isr.c **** 
 168:.\Generated_Source\PSoC4/BLE_1_bless_isr.c **** 
 169:.\Generated_Source\PSoC4/BLE_1_bless_isr.c **** /*******************************************************************************
 170:.\Generated_Source\PSoC4/BLE_1_bless_isr.c **** * Function Name: BLE_1_bless_isr_GetVector
 171:.\Generated_Source\PSoC4/BLE_1_bless_isr.c **** ********************************************************************************
 172:.\Generated_Source\PSoC4/BLE_1_bless_isr.c **** *
 173:.\Generated_Source\PSoC4/BLE_1_bless_isr.c **** * Summary:
 174:.\Generated_Source\PSoC4/BLE_1_bless_isr.c **** *   Gets the "address" of the current ISR vector for the Interrupt.
 175:.\Generated_Source\PSoC4/BLE_1_bless_isr.c **** *
 176:.\Generated_Source\PSoC4/BLE_1_bless_isr.c **** * Parameters:
 177:.\Generated_Source\PSoC4/BLE_1_bless_isr.c **** *   None
 178:.\Generated_Source\PSoC4/BLE_1_bless_isr.c **** *
 179:.\Generated_Source\PSoC4/BLE_1_bless_isr.c **** * Return:
 180:.\Generated_Source\PSoC4/BLE_1_bless_isr.c **** *   Address of the ISR in the interrupt vector table.
 181:.\Generated_Source\PSoC4/BLE_1_bless_isr.c **** *
 182:.\Generated_Source\PSoC4/BLE_1_bless_isr.c **** *******************************************************************************/
 183:.\Generated_Source\PSoC4/BLE_1_bless_isr.c **** cyisraddress BLE_1_bless_isr_GetVector(void)
 184:.\Generated_Source\PSoC4/BLE_1_bless_isr.c **** {
 193              		.loc 1 184 0
 194              		.cfi_startproc
 195 0000 80B5     		push	{r7, lr}
 196              		.cfi_def_cfa_offset 8
 197              		.cfi_offset 7, -8
 198              		.cfi_offset 14, -4
 199 0002 00AF     		add	r7, sp, #0
 200              		.cfi_def_cfa_register 7
 185:.\Generated_Source\PSoC4/BLE_1_bless_isr.c ****     return CyRamVectors[CYINT_IRQ_BASE + BLE_1_bless_isr__INTC_NUMBER];
 201              		.loc 1 185 0
 202 0004 024B     		ldr	r3, .L14
 203 0006 1B6F     		ldr	r3, [r3, #112]
 186:.\Generated_Source\PSoC4/BLE_1_bless_isr.c **** }
 204              		.loc 1 186 0
 205 0008 181C     		mov	r0, r3
 206 000a BD46     		mov	sp, r7
 207              		@ sp needed
 208 000c 80BD     		pop	{r7, pc}
 209              	.L15:
 210 000e C046     		.align	2
 211              	.L14:
 212 0010 00000000 		.word	CyRamVectors
 213              		.cfi_endproc
ARM GAS  C:\Users\Steven\AppData\Local\Temp\ccGyh3be.s 			page 8


 214              	.LFE7:
 215              		.size	BLE_1_bless_isr_GetVector, .-BLE_1_bless_isr_GetVector
 216              		.section	.text.BLE_1_bless_isr_SetPriority,"ax",%progbits
 217              		.align	2
 218              		.global	BLE_1_bless_isr_SetPriority
 219              		.code	16
 220              		.thumb_func
 221              		.type	BLE_1_bless_isr_SetPriority, %function
 222              	BLE_1_bless_isr_SetPriority:
 223              	.LFB8:
 187:.\Generated_Source\PSoC4/BLE_1_bless_isr.c **** 
 188:.\Generated_Source\PSoC4/BLE_1_bless_isr.c **** 
 189:.\Generated_Source\PSoC4/BLE_1_bless_isr.c **** /*******************************************************************************
 190:.\Generated_Source\PSoC4/BLE_1_bless_isr.c **** * Function Name: BLE_1_bless_isr_SetPriority
 191:.\Generated_Source\PSoC4/BLE_1_bless_isr.c **** ********************************************************************************
 192:.\Generated_Source\PSoC4/BLE_1_bless_isr.c **** *
 193:.\Generated_Source\PSoC4/BLE_1_bless_isr.c **** * Summary:
 194:.\Generated_Source\PSoC4/BLE_1_bless_isr.c **** *   Sets the Priority of the Interrupt. Note calling BLE_1_bless_isr_Start
 195:.\Generated_Source\PSoC4/BLE_1_bless_isr.c **** *   or BLE_1_bless_isr_StartEx will override any effect this method would 
 196:.\Generated_Source\PSoC4/BLE_1_bless_isr.c **** *   have had. This method should only be called after BLE_1_bless_isr_Start or 
 197:.\Generated_Source\PSoC4/BLE_1_bless_isr.c **** *   BLE_1_bless_isr_StartEx has been called. To set the initial
 198:.\Generated_Source\PSoC4/BLE_1_bless_isr.c **** *   priority for the component use the cydwr file in the tool.
 199:.\Generated_Source\PSoC4/BLE_1_bless_isr.c **** *
 200:.\Generated_Source\PSoC4/BLE_1_bless_isr.c **** * Parameters:
 201:.\Generated_Source\PSoC4/BLE_1_bless_isr.c **** *   priority: Priority of the interrupt. 0 - 3, 0 being the highest.
 202:.\Generated_Source\PSoC4/BLE_1_bless_isr.c **** *
 203:.\Generated_Source\PSoC4/BLE_1_bless_isr.c **** * Return:
 204:.\Generated_Source\PSoC4/BLE_1_bless_isr.c **** *   None
 205:.\Generated_Source\PSoC4/BLE_1_bless_isr.c **** *
 206:.\Generated_Source\PSoC4/BLE_1_bless_isr.c **** *******************************************************************************/
 207:.\Generated_Source\PSoC4/BLE_1_bless_isr.c **** void BLE_1_bless_isr_SetPriority(uint8 priority)
 208:.\Generated_Source\PSoC4/BLE_1_bless_isr.c **** {
 224              		.loc 1 208 0
 225              		.cfi_startproc
 226 0000 90B5     		push	{r4, r7, lr}
 227              		.cfi_def_cfa_offset 12
 228              		.cfi_offset 4, -12
 229              		.cfi_offset 7, -8
 230              		.cfi_offset 14, -4
 231 0002 85B0     		sub	sp, sp, #20
 232              		.cfi_def_cfa_offset 32
 233 0004 00AF     		add	r7, sp, #0
 234              		.cfi_def_cfa_register 7
 235 0006 021C     		mov	r2, r0
 236 0008 FB1D     		add	r3, r7, #7
 237 000a 1A70     		strb	r2, [r3]
 209:.\Generated_Source\PSoC4/BLE_1_bless_isr.c **** 	uint8 interruptState;
 210:.\Generated_Source\PSoC4/BLE_1_bless_isr.c ****     uint32 priorityOffset = ((BLE_1_bless_isr__INTC_NUMBER % 4u) * 8u) + 6u;
 238              		.loc 1 210 0
 239 000c 0623     		mov	r3, #6
 240 000e FB60     		str	r3, [r7, #12]
 211:.\Generated_Source\PSoC4/BLE_1_bless_isr.c ****     
 212:.\Generated_Source\PSoC4/BLE_1_bless_isr.c **** 	interruptState = CyEnterCriticalSection();
 241              		.loc 1 212 0
 242 0010 3C1C     		mov	r4, r7
 243 0012 0B34     		add	r4, r4, #11
 244 0014 FFF7FEFF 		bl	CyEnterCriticalSection
ARM GAS  C:\Users\Steven\AppData\Local\Temp\ccGyh3be.s 			page 9


 245 0018 031C     		mov	r3, r0
 246 001a 2370     		strb	r3, [r4]
 213:.\Generated_Source\PSoC4/BLE_1_bless_isr.c ****     *BLE_1_bless_isr_INTC_PRIOR = (*BLE_1_bless_isr_INTC_PRIOR & (uint32)(~BLE_1_bless_isr__INTC_PR
 247              		.loc 1 213 0
 248 001c 0B4B     		ldr	r3, .L17
 249 001e 0B4A     		ldr	r2, .L17
 250 0020 1268     		ldr	r2, [r2]
 251 0022 C021     		mov	r1, #192
 252 0024 101C     		mov	r0, r2
 253 0026 8843     		bic	r0, r1
 254 0028 011C     		mov	r1, r0
 214:.\Generated_Source\PSoC4/BLE_1_bless_isr.c ****                                     ((uint32)priority << priorityOffset);
 255              		.loc 1 214 0
 256 002a FA1D     		add	r2, r7, #7
 257 002c 1078     		ldrb	r0, [r2]
 258 002e FA68     		ldr	r2, [r7, #12]
 259 0030 041C     		mov	r4, r0
 260 0032 9440     		lsl	r4, r4, r2
 261 0034 221C     		mov	r2, r4
 213:.\Generated_Source\PSoC4/BLE_1_bless_isr.c ****     *BLE_1_bless_isr_INTC_PRIOR = (*BLE_1_bless_isr_INTC_PRIOR & (uint32)(~BLE_1_bless_isr__INTC_PR
 262              		.loc 1 213 0
 263 0036 0A43     		orr	r2, r1
 264 0038 1A60     		str	r2, [r3]
 215:.\Generated_Source\PSoC4/BLE_1_bless_isr.c **** 	CyExitCriticalSection(interruptState);
 265              		.loc 1 215 0
 266 003a 3B1C     		mov	r3, r7
 267 003c 0B33     		add	r3, r3, #11
 268 003e 1B78     		ldrb	r3, [r3]
 269 0040 181C     		mov	r0, r3
 270 0042 FFF7FEFF 		bl	CyExitCriticalSection
 216:.\Generated_Source\PSoC4/BLE_1_bless_isr.c **** }
 271              		.loc 1 216 0
 272 0046 BD46     		mov	sp, r7
 273 0048 05B0     		add	sp, sp, #20
 274              		@ sp needed
 275 004a 90BD     		pop	{r4, r7, pc}
 276              	.L18:
 277              		.align	2
 278              	.L17:
 279 004c 0CE400E0 		.word	-536812532
 280              		.cfi_endproc
 281              	.LFE8:
 282              		.size	BLE_1_bless_isr_SetPriority, .-BLE_1_bless_isr_SetPriority
 283              		.section	.text.BLE_1_bless_isr_GetPriority,"ax",%progbits
 284              		.align	2
 285              		.global	BLE_1_bless_isr_GetPriority
 286              		.code	16
 287              		.thumb_func
 288              		.type	BLE_1_bless_isr_GetPriority, %function
 289              	BLE_1_bless_isr_GetPriority:
 290              	.LFB9:
 217:.\Generated_Source\PSoC4/BLE_1_bless_isr.c **** 
 218:.\Generated_Source\PSoC4/BLE_1_bless_isr.c **** 
 219:.\Generated_Source\PSoC4/BLE_1_bless_isr.c **** /*******************************************************************************
 220:.\Generated_Source\PSoC4/BLE_1_bless_isr.c **** * Function Name: BLE_1_bless_isr_GetPriority
 221:.\Generated_Source\PSoC4/BLE_1_bless_isr.c **** ********************************************************************************
 222:.\Generated_Source\PSoC4/BLE_1_bless_isr.c **** *
ARM GAS  C:\Users\Steven\AppData\Local\Temp\ccGyh3be.s 			page 10


 223:.\Generated_Source\PSoC4/BLE_1_bless_isr.c **** * Summary:
 224:.\Generated_Source\PSoC4/BLE_1_bless_isr.c **** *   Gets the Priority of the Interrupt.
 225:.\Generated_Source\PSoC4/BLE_1_bless_isr.c **** *
 226:.\Generated_Source\PSoC4/BLE_1_bless_isr.c **** * Parameters:
 227:.\Generated_Source\PSoC4/BLE_1_bless_isr.c **** *   None
 228:.\Generated_Source\PSoC4/BLE_1_bless_isr.c **** *
 229:.\Generated_Source\PSoC4/BLE_1_bless_isr.c **** * Return:
 230:.\Generated_Source\PSoC4/BLE_1_bless_isr.c **** *   Priority of the interrupt. 0 - 3, 0 being the highest.
 231:.\Generated_Source\PSoC4/BLE_1_bless_isr.c **** *
 232:.\Generated_Source\PSoC4/BLE_1_bless_isr.c **** *******************************************************************************/
 233:.\Generated_Source\PSoC4/BLE_1_bless_isr.c **** uint8 BLE_1_bless_isr_GetPriority(void)
 234:.\Generated_Source\PSoC4/BLE_1_bless_isr.c **** {
 291              		.loc 1 234 0
 292              		.cfi_startproc
 293 0000 80B5     		push	{r7, lr}
 294              		.cfi_def_cfa_offset 8
 295              		.cfi_offset 7, -8
 296              		.cfi_offset 14, -4
 297 0002 82B0     		sub	sp, sp, #8
 298              		.cfi_def_cfa_offset 16
 299 0004 00AF     		add	r7, sp, #0
 300              		.cfi_def_cfa_register 7
 235:.\Generated_Source\PSoC4/BLE_1_bless_isr.c ****     uint32 priority;
 236:.\Generated_Source\PSoC4/BLE_1_bless_isr.c **** 	uint32 priorityOffset = ((BLE_1_bless_isr__INTC_NUMBER % 4u) * 8u) + 6u;
 301              		.loc 1 236 0
 302 0006 0623     		mov	r3, #6
 303 0008 7B60     		str	r3, [r7, #4]
 237:.\Generated_Source\PSoC4/BLE_1_bless_isr.c **** 
 238:.\Generated_Source\PSoC4/BLE_1_bless_isr.c ****     priority = (*BLE_1_bless_isr_INTC_PRIOR & BLE_1_bless_isr__INTC_PRIOR_MASK) >> priorityOffset;
 304              		.loc 1 238 0
 305 000a 074B     		ldr	r3, .L21
 306 000c 1A68     		ldr	r2, [r3]
 307 000e C023     		mov	r3, #192
 308 0010 1A40     		and	r2, r3
 309 0012 7B68     		ldr	r3, [r7, #4]
 310 0014 111C     		mov	r1, r2
 311 0016 D940     		lsr	r1, r1, r3
 312 0018 0B1C     		mov	r3, r1
 313 001a 3B60     		str	r3, [r7]
 239:.\Generated_Source\PSoC4/BLE_1_bless_isr.c **** 
 240:.\Generated_Source\PSoC4/BLE_1_bless_isr.c ****     return (uint8)priority;
 314              		.loc 1 240 0
 315 001c 3B68     		ldr	r3, [r7]
 316 001e DBB2     		uxtb	r3, r3
 241:.\Generated_Source\PSoC4/BLE_1_bless_isr.c **** }
 317              		.loc 1 241 0
 318 0020 181C     		mov	r0, r3
 319 0022 BD46     		mov	sp, r7
 320 0024 02B0     		add	sp, sp, #8
 321              		@ sp needed
 322 0026 80BD     		pop	{r7, pc}
 323              	.L22:
 324              		.align	2
 325              	.L21:
 326 0028 0CE400E0 		.word	-536812532
 327              		.cfi_endproc
 328              	.LFE9:
ARM GAS  C:\Users\Steven\AppData\Local\Temp\ccGyh3be.s 			page 11


 329              		.size	BLE_1_bless_isr_GetPriority, .-BLE_1_bless_isr_GetPriority
 330              		.section	.text.BLE_1_bless_isr_Enable,"ax",%progbits
 331              		.align	2
 332              		.global	BLE_1_bless_isr_Enable
 333              		.code	16
 334              		.thumb_func
 335              		.type	BLE_1_bless_isr_Enable, %function
 336              	BLE_1_bless_isr_Enable:
 337              	.LFB10:
 242:.\Generated_Source\PSoC4/BLE_1_bless_isr.c **** 
 243:.\Generated_Source\PSoC4/BLE_1_bless_isr.c **** 
 244:.\Generated_Source\PSoC4/BLE_1_bless_isr.c **** /*******************************************************************************
 245:.\Generated_Source\PSoC4/BLE_1_bless_isr.c **** * Function Name: BLE_1_bless_isr_Enable
 246:.\Generated_Source\PSoC4/BLE_1_bless_isr.c **** ********************************************************************************
 247:.\Generated_Source\PSoC4/BLE_1_bless_isr.c **** *
 248:.\Generated_Source\PSoC4/BLE_1_bless_isr.c **** * Summary:
 249:.\Generated_Source\PSoC4/BLE_1_bless_isr.c **** *   Enables the interrupt.
 250:.\Generated_Source\PSoC4/BLE_1_bless_isr.c **** *
 251:.\Generated_Source\PSoC4/BLE_1_bless_isr.c **** * Parameters:
 252:.\Generated_Source\PSoC4/BLE_1_bless_isr.c **** *   None
 253:.\Generated_Source\PSoC4/BLE_1_bless_isr.c **** *
 254:.\Generated_Source\PSoC4/BLE_1_bless_isr.c **** * Return:
 255:.\Generated_Source\PSoC4/BLE_1_bless_isr.c **** *   None
 256:.\Generated_Source\PSoC4/BLE_1_bless_isr.c **** *
 257:.\Generated_Source\PSoC4/BLE_1_bless_isr.c **** *******************************************************************************/
 258:.\Generated_Source\PSoC4/BLE_1_bless_isr.c **** void BLE_1_bless_isr_Enable(void)
 259:.\Generated_Source\PSoC4/BLE_1_bless_isr.c **** {
 338              		.loc 1 259 0
 339              		.cfi_startproc
 340 0000 80B5     		push	{r7, lr}
 341              		.cfi_def_cfa_offset 8
 342              		.cfi_offset 7, -8
 343              		.cfi_offset 14, -4
 344 0002 00AF     		add	r7, sp, #0
 345              		.cfi_def_cfa_register 7
 260:.\Generated_Source\PSoC4/BLE_1_bless_isr.c ****     /* Enable the general interrupt. */
 261:.\Generated_Source\PSoC4/BLE_1_bless_isr.c ****     *BLE_1_bless_isr_INTC_SET_EN = BLE_1_bless_isr__INTC_MASK;
 346              		.loc 1 261 0
 347 0004 024B     		ldr	r3, .L24
 348 0006 8022     		mov	r2, #128
 349 0008 5201     		lsl	r2, r2, #5
 350 000a 1A60     		str	r2, [r3]
 262:.\Generated_Source\PSoC4/BLE_1_bless_isr.c **** }
 351              		.loc 1 262 0
 352 000c BD46     		mov	sp, r7
 353              		@ sp needed
 354 000e 80BD     		pop	{r7, pc}
 355              	.L25:
 356              		.align	2
 357              	.L24:
 358 0010 00E100E0 		.word	-536813312
 359              		.cfi_endproc
 360              	.LFE10:
 361              		.size	BLE_1_bless_isr_Enable, .-BLE_1_bless_isr_Enable
 362              		.section	.text.BLE_1_bless_isr_GetState,"ax",%progbits
 363              		.align	2
 364              		.global	BLE_1_bless_isr_GetState
ARM GAS  C:\Users\Steven\AppData\Local\Temp\ccGyh3be.s 			page 12


 365              		.code	16
 366              		.thumb_func
 367              		.type	BLE_1_bless_isr_GetState, %function
 368              	BLE_1_bless_isr_GetState:
 369              	.LFB11:
 263:.\Generated_Source\PSoC4/BLE_1_bless_isr.c **** 
 264:.\Generated_Source\PSoC4/BLE_1_bless_isr.c **** 
 265:.\Generated_Source\PSoC4/BLE_1_bless_isr.c **** /*******************************************************************************
 266:.\Generated_Source\PSoC4/BLE_1_bless_isr.c **** * Function Name: BLE_1_bless_isr_GetState
 267:.\Generated_Source\PSoC4/BLE_1_bless_isr.c **** ********************************************************************************
 268:.\Generated_Source\PSoC4/BLE_1_bless_isr.c **** *
 269:.\Generated_Source\PSoC4/BLE_1_bless_isr.c **** * Summary:
 270:.\Generated_Source\PSoC4/BLE_1_bless_isr.c **** *   Gets the state (enabled, disabled) of the Interrupt.
 271:.\Generated_Source\PSoC4/BLE_1_bless_isr.c **** *
 272:.\Generated_Source\PSoC4/BLE_1_bless_isr.c **** * Parameters:
 273:.\Generated_Source\PSoC4/BLE_1_bless_isr.c **** *   None
 274:.\Generated_Source\PSoC4/BLE_1_bless_isr.c **** *
 275:.\Generated_Source\PSoC4/BLE_1_bless_isr.c **** * Return:
 276:.\Generated_Source\PSoC4/BLE_1_bless_isr.c **** *   1 if enabled, 0 if disabled.
 277:.\Generated_Source\PSoC4/BLE_1_bless_isr.c **** *
 278:.\Generated_Source\PSoC4/BLE_1_bless_isr.c **** *******************************************************************************/
 279:.\Generated_Source\PSoC4/BLE_1_bless_isr.c **** uint8 BLE_1_bless_isr_GetState(void)
 280:.\Generated_Source\PSoC4/BLE_1_bless_isr.c **** {
 370              		.loc 1 280 0
 371              		.cfi_startproc
 372 0000 80B5     		push	{r7, lr}
 373              		.cfi_def_cfa_offset 8
 374              		.cfi_offset 7, -8
 375              		.cfi_offset 14, -4
 376 0002 00AF     		add	r7, sp, #0
 377              		.cfi_def_cfa_register 7
 281:.\Generated_Source\PSoC4/BLE_1_bless_isr.c ****     /* Get the state of the general interrupt. */
 282:.\Generated_Source\PSoC4/BLE_1_bless_isr.c ****     return ((*BLE_1_bless_isr_INTC_SET_EN & (uint32)BLE_1_bless_isr__INTC_MASK) != 0u) ? 1u:0u;
 378              		.loc 1 282 0
 379 0004 054B     		ldr	r3, .L30
 380 0006 1A68     		ldr	r2, [r3]
 381 0008 8023     		mov	r3, #128
 382 000a 5B01     		lsl	r3, r3, #5
 383 000c 1340     		and	r3, r2
 384 000e 01D0     		beq	.L27
 385              		.loc 1 282 0 is_stmt 0 discriminator 1
 386 0010 0123     		mov	r3, #1
 387 0012 00E0     		b	.L28
 388              	.L27:
 389              		.loc 1 282 0 discriminator 2
 390 0014 0023     		mov	r3, #0
 391              	.L28:
 283:.\Generated_Source\PSoC4/BLE_1_bless_isr.c **** }
 392              		.loc 1 283 0 is_stmt 1 discriminator 3
 393 0016 181C     		mov	r0, r3
 394 0018 BD46     		mov	sp, r7
 395              		@ sp needed
 396 001a 80BD     		pop	{r7, pc}
 397              	.L31:
 398              		.align	2
 399              	.L30:
 400 001c 00E100E0 		.word	-536813312
ARM GAS  C:\Users\Steven\AppData\Local\Temp\ccGyh3be.s 			page 13


 401              		.cfi_endproc
 402              	.LFE11:
 403              		.size	BLE_1_bless_isr_GetState, .-BLE_1_bless_isr_GetState
 404              		.section	.text.BLE_1_bless_isr_Disable,"ax",%progbits
 405              		.align	2
 406              		.global	BLE_1_bless_isr_Disable
 407              		.code	16
 408              		.thumb_func
 409              		.type	BLE_1_bless_isr_Disable, %function
 410              	BLE_1_bless_isr_Disable:
 411              	.LFB12:
 284:.\Generated_Source\PSoC4/BLE_1_bless_isr.c **** 
 285:.\Generated_Source\PSoC4/BLE_1_bless_isr.c **** 
 286:.\Generated_Source\PSoC4/BLE_1_bless_isr.c **** /*******************************************************************************
 287:.\Generated_Source\PSoC4/BLE_1_bless_isr.c **** * Function Name: BLE_1_bless_isr_Disable
 288:.\Generated_Source\PSoC4/BLE_1_bless_isr.c **** ********************************************************************************
 289:.\Generated_Source\PSoC4/BLE_1_bless_isr.c **** *
 290:.\Generated_Source\PSoC4/BLE_1_bless_isr.c **** * Summary:
 291:.\Generated_Source\PSoC4/BLE_1_bless_isr.c **** *   Disables the Interrupt.
 292:.\Generated_Source\PSoC4/BLE_1_bless_isr.c **** *
 293:.\Generated_Source\PSoC4/BLE_1_bless_isr.c **** * Parameters:
 294:.\Generated_Source\PSoC4/BLE_1_bless_isr.c **** *   None
 295:.\Generated_Source\PSoC4/BLE_1_bless_isr.c **** *
 296:.\Generated_Source\PSoC4/BLE_1_bless_isr.c **** * Return:
 297:.\Generated_Source\PSoC4/BLE_1_bless_isr.c **** *   None
 298:.\Generated_Source\PSoC4/BLE_1_bless_isr.c **** *
 299:.\Generated_Source\PSoC4/BLE_1_bless_isr.c **** *******************************************************************************/
 300:.\Generated_Source\PSoC4/BLE_1_bless_isr.c **** void BLE_1_bless_isr_Disable(void)
 301:.\Generated_Source\PSoC4/BLE_1_bless_isr.c **** {
 412              		.loc 1 301 0
 413              		.cfi_startproc
 414 0000 80B5     		push	{r7, lr}
 415              		.cfi_def_cfa_offset 8
 416              		.cfi_offset 7, -8
 417              		.cfi_offset 14, -4
 418 0002 00AF     		add	r7, sp, #0
 419              		.cfi_def_cfa_register 7
 302:.\Generated_Source\PSoC4/BLE_1_bless_isr.c ****     /* Disable the general interrupt. */
 303:.\Generated_Source\PSoC4/BLE_1_bless_isr.c ****     *BLE_1_bless_isr_INTC_CLR_EN = BLE_1_bless_isr__INTC_MASK;
 420              		.loc 1 303 0
 421 0004 024B     		ldr	r3, .L33
 422 0006 8022     		mov	r2, #128
 423 0008 5201     		lsl	r2, r2, #5
 424 000a 1A60     		str	r2, [r3]
 304:.\Generated_Source\PSoC4/BLE_1_bless_isr.c **** }
 425              		.loc 1 304 0
 426 000c BD46     		mov	sp, r7
 427              		@ sp needed
 428 000e 80BD     		pop	{r7, pc}
 429              	.L34:
 430              		.align	2
 431              	.L33:
 432 0010 80E100E0 		.word	-536813184
 433              		.cfi_endproc
 434              	.LFE12:
 435              		.size	BLE_1_bless_isr_Disable, .-BLE_1_bless_isr_Disable
 436              		.section	.text.BLE_1_bless_isr_SetPending,"ax",%progbits
ARM GAS  C:\Users\Steven\AppData\Local\Temp\ccGyh3be.s 			page 14


 437              		.align	2
 438              		.global	BLE_1_bless_isr_SetPending
 439              		.code	16
 440              		.thumb_func
 441              		.type	BLE_1_bless_isr_SetPending, %function
 442              	BLE_1_bless_isr_SetPending:
 443              	.LFB13:
 305:.\Generated_Source\PSoC4/BLE_1_bless_isr.c **** 
 306:.\Generated_Source\PSoC4/BLE_1_bless_isr.c **** 
 307:.\Generated_Source\PSoC4/BLE_1_bless_isr.c **** /*******************************************************************************
 308:.\Generated_Source\PSoC4/BLE_1_bless_isr.c **** * Function Name: BLE_1_bless_isr_SetPending
 309:.\Generated_Source\PSoC4/BLE_1_bless_isr.c **** ********************************************************************************
 310:.\Generated_Source\PSoC4/BLE_1_bless_isr.c **** *
 311:.\Generated_Source\PSoC4/BLE_1_bless_isr.c **** * Summary:
 312:.\Generated_Source\PSoC4/BLE_1_bless_isr.c **** *   Causes the Interrupt to enter the pending state, a software method of
 313:.\Generated_Source\PSoC4/BLE_1_bless_isr.c **** *   generating the interrupt.
 314:.\Generated_Source\PSoC4/BLE_1_bless_isr.c **** *
 315:.\Generated_Source\PSoC4/BLE_1_bless_isr.c **** * Parameters:
 316:.\Generated_Source\PSoC4/BLE_1_bless_isr.c **** *   None
 317:.\Generated_Source\PSoC4/BLE_1_bless_isr.c **** *
 318:.\Generated_Source\PSoC4/BLE_1_bless_isr.c **** * Return:
 319:.\Generated_Source\PSoC4/BLE_1_bless_isr.c **** *   None
 320:.\Generated_Source\PSoC4/BLE_1_bless_isr.c **** *
 321:.\Generated_Source\PSoC4/BLE_1_bless_isr.c **** *******************************************************************************/
 322:.\Generated_Source\PSoC4/BLE_1_bless_isr.c **** void BLE_1_bless_isr_SetPending(void)
 323:.\Generated_Source\PSoC4/BLE_1_bless_isr.c **** {
 444              		.loc 1 323 0
 445              		.cfi_startproc
 446 0000 80B5     		push	{r7, lr}
 447              		.cfi_def_cfa_offset 8
 448              		.cfi_offset 7, -8
 449              		.cfi_offset 14, -4
 450 0002 00AF     		add	r7, sp, #0
 451              		.cfi_def_cfa_register 7
 324:.\Generated_Source\PSoC4/BLE_1_bless_isr.c ****     *BLE_1_bless_isr_INTC_SET_PD = BLE_1_bless_isr__INTC_MASK;
 452              		.loc 1 324 0
 453 0004 024B     		ldr	r3, .L36
 454 0006 8022     		mov	r2, #128
 455 0008 5201     		lsl	r2, r2, #5
 456 000a 1A60     		str	r2, [r3]
 325:.\Generated_Source\PSoC4/BLE_1_bless_isr.c **** }
 457              		.loc 1 325 0
 458 000c BD46     		mov	sp, r7
 459              		@ sp needed
 460 000e 80BD     		pop	{r7, pc}
 461              	.L37:
 462              		.align	2
 463              	.L36:
 464 0010 00E200E0 		.word	-536813056
 465              		.cfi_endproc
 466              	.LFE13:
 467              		.size	BLE_1_bless_isr_SetPending, .-BLE_1_bless_isr_SetPending
 468              		.section	.text.BLE_1_bless_isr_ClearPending,"ax",%progbits
 469              		.align	2
 470              		.global	BLE_1_bless_isr_ClearPending
 471              		.code	16
 472              		.thumb_func
ARM GAS  C:\Users\Steven\AppData\Local\Temp\ccGyh3be.s 			page 15


 473              		.type	BLE_1_bless_isr_ClearPending, %function
 474              	BLE_1_bless_isr_ClearPending:
 475              	.LFB14:
 326:.\Generated_Source\PSoC4/BLE_1_bless_isr.c **** 
 327:.\Generated_Source\PSoC4/BLE_1_bless_isr.c **** 
 328:.\Generated_Source\PSoC4/BLE_1_bless_isr.c **** /*******************************************************************************
 329:.\Generated_Source\PSoC4/BLE_1_bless_isr.c **** * Function Name: BLE_1_bless_isr_ClearPending
 330:.\Generated_Source\PSoC4/BLE_1_bless_isr.c **** ********************************************************************************
 331:.\Generated_Source\PSoC4/BLE_1_bless_isr.c **** *
 332:.\Generated_Source\PSoC4/BLE_1_bless_isr.c **** * Summary:
 333:.\Generated_Source\PSoC4/BLE_1_bless_isr.c **** *   Clears a pending interrupt.
 334:.\Generated_Source\PSoC4/BLE_1_bless_isr.c **** *
 335:.\Generated_Source\PSoC4/BLE_1_bless_isr.c **** * Parameters:
 336:.\Generated_Source\PSoC4/BLE_1_bless_isr.c **** *   None
 337:.\Generated_Source\PSoC4/BLE_1_bless_isr.c **** *
 338:.\Generated_Source\PSoC4/BLE_1_bless_isr.c **** * Return:
 339:.\Generated_Source\PSoC4/BLE_1_bless_isr.c **** *   None
 340:.\Generated_Source\PSoC4/BLE_1_bless_isr.c **** *
 341:.\Generated_Source\PSoC4/BLE_1_bless_isr.c **** *******************************************************************************/
 342:.\Generated_Source\PSoC4/BLE_1_bless_isr.c **** void BLE_1_bless_isr_ClearPending(void)
 343:.\Generated_Source\PSoC4/BLE_1_bless_isr.c **** {
 476              		.loc 1 343 0
 477              		.cfi_startproc
 478 0000 80B5     		push	{r7, lr}
 479              		.cfi_def_cfa_offset 8
 480              		.cfi_offset 7, -8
 481              		.cfi_offset 14, -4
 482 0002 00AF     		add	r7, sp, #0
 483              		.cfi_def_cfa_register 7
 344:.\Generated_Source\PSoC4/BLE_1_bless_isr.c ****     *BLE_1_bless_isr_INTC_CLR_PD = BLE_1_bless_isr__INTC_MASK;
 484              		.loc 1 344 0
 485 0004 024B     		ldr	r3, .L39
 486 0006 8022     		mov	r2, #128
 487 0008 5201     		lsl	r2, r2, #5
 488 000a 1A60     		str	r2, [r3]
 345:.\Generated_Source\PSoC4/BLE_1_bless_isr.c **** }
 489              		.loc 1 345 0
 490 000c BD46     		mov	sp, r7
 491              		@ sp needed
 492 000e 80BD     		pop	{r7, pc}
 493              	.L40:
 494              		.align	2
 495              	.L39:
 496 0010 80E200E0 		.word	-536812928
 497              		.cfi_endproc
 498              	.LFE14:
 499              		.size	BLE_1_bless_isr_ClearPending, .-BLE_1_bless_isr_ClearPending
 500              		.text
 501              	.Letext0:
 502              		.file 2 ".\\Generated_Source\\PSoC4/cytypes.h"