ARM GAS  C:\Users\JFDuval\AppData\Local\Temp\ccq4FbZ6.s 			page 1


   1              		.cpu cortex-m0
   2              		.fpu softvfp
   3              		.eabi_attribute 20, 1
   4              		.eabi_attribute 21, 1
   5              		.eabi_attribute 23, 3
   6              		.eabi_attribute 24, 1
   7              		.eabi_attribute 25, 1
   8              		.eabi_attribute 26, 1
   9              		.eabi_attribute 30, 6
  10              		.eabi_attribute 34, 0
  11              		.eabi_attribute 18, 4
  12              		.code	16
  13              		.file	"main.c"
  14              		.text
  15              	.Ltext0:
  16              		.cfi_sections	.debug_frame
  17              		.section	.text.main,"ax",%progbits
  18              		.align	2
  19              		.global	main
  20              		.code	16
  21              		.thumb_func
  22              		.type	main, %function
  23              	main:
  24              	.LFB35:
  25              		.file 1 "..\\src\\main.c"
   1:..\src/main.c **** /* ========================================
   2:..\src/main.c ****  *
   3:..\src/main.c ****  * Copyright YOUR COMPANY, THE YEAR
   4:..\src/main.c ****  * All Rights Reserved
   5:..\src/main.c ****  * UNPUBLISHED, LICENSED SOFTWARE.
   6:..\src/main.c ****  *
   7:..\src/main.c ****  * CONFIDENTIAL AND PROPRIETARY INFORMATION
   8:..\src/main.c ****  * WHICH IS THE PROPERTY OF your company.
   9:..\src/main.c ****  *
  10:..\src/main.c ****  * ========================================
  11:..\src/main.c **** */
  12:..\src/main.c **** #include <project.h>
  13:..\src/main.c **** #include <stdio.h>
  14:..\src/main.c **** 
  15:..\src/main.c **** int main()
  16:..\src/main.c **** {
  26              		.loc 1 16 0
  27              		.cfi_startproc
  28 0000 80B5     		push	{r7, lr}
  29              		.cfi_def_cfa_offset 8
  30              		.cfi_offset 7, -8
  31              		.cfi_offset 14, -4
  32 0002 82B0     		sub	sp, sp, #8
  33              		.cfi_def_cfa_offset 16
  34 0004 00AF     		add	r7, sp, #0
  35              		.cfi_def_cfa_register 7
  17:..\src/main.c ****     uint16 voltage = 0; //mV
  36              		.loc 1 17 0
  37 0006 BB1D     		add	r3, r7, #6
  38 0008 0022     		mov	r2, #0
  39 000a 1A80     		strh	r2, [r3]
  18:..\src/main.c ****     
ARM GAS  C:\Users\JFDuval\AppData\Local\Temp\ccq4FbZ6.s 			page 2


  19:..\src/main.c ****     //CyGlobalIntEnable;
  20:..\src/main.c ****     
  21:..\src/main.c ****     /* Place your initialization/startup code here (e.g. MyInst_Start()) */
  22:..\src/main.c ****     ADC_SAR_Seq_1_Start();
  40              		.loc 1 22 0
  41 000c FFF7FEFF 		bl	ADC_SAR_Seq_1_Start
  23:..\src/main.c ****     ADC_SAR_Seq_1_StartConvert();
  42              		.loc 1 23 0
  43 0010 FFF7FEFF 		bl	ADC_SAR_Seq_1_StartConvert
  24:..\src/main.c ****     
  25:..\src/main.c ****     CyDelay(50);
  44              		.loc 1 25 0
  45 0014 3220     		mov	r0, #50
  46 0016 FFF7FEFF 		bl	CyDelay
  26:..\src/main.c ****     // turn on the system
  27:..\src/main.c ****     H_Write(1);
  47              		.loc 1 27 0
  48 001a 0120     		mov	r0, #1
  49 001c FFF7FEFF 		bl	H_Write
  28:..\src/main.c ****     LED_G_Write(1);
  50              		.loc 1 28 0
  51 0020 0120     		mov	r0, #1
  52 0022 FFF7FEFF 		bl	LED_G_Write
  53              	.L2:
  54              	.LBB2:
  29:..\src/main.c ****     
  30:..\src/main.c ****     /*
  31:..\src/main.c ****     // flash SPI test code
  32:..\src/main.c ****     SPI_1_Start();
  33:..\src/main.c ****     // write the "read ID" command
  34:..\src/main.c ****     SPI_1_SpiUartWriteTxData(0x05u);
  35:..\src/main.c ****     
  36:..\src/main.c ****     while(0u == (SPI_1_GetMasterInterruptSource() & SPI_1_INTR_MASTER_SPI_DONE))
  37:..\src/main.c ****     {
  38:..\src/main.c ****         // Wait while Master completes transfer
  39:..\src/main.c ****     }
  40:..\src/main.c ****     
  41:..\src/main.c ****     // Clear interrupt source after transfer completion
  42:..\src/main.c ****     SPI_1_ClearMasterInterruptSource(SPI_1_INTR_MASTER_SPI_DONE);
  43:..\src/main.c ****     
  44:..\src/main.c ****     uint32 data = SPI_1_SpiUartReadRxData();
  45:..\src/main.c ****     */
  46:..\src/main.c ****         
  47:..\src/main.c ****     /* CyGlobalIntEnable; */ /* Uncomment this line to enable global interrupts. */
  48:..\src/main.c ****     for(;;)
  49:..\src/main.c ****     {
  50:..\src/main.c ****         /* Place your application code here. */
  51:..\src/main.c ****         voltage = read_battery_voltage();
  55              		.loc 1 51 0 discriminator 1
  56 0026 FFF7FEFF 		bl	read_battery_voltage
  57 002a 021C     		mov	r2, r0
  58 002c BB1D     		add	r3, r7, #6
  59 002e 1A80     		strh	r2, [r3]
  52:..\src/main.c ****         
  53:..\src/main.c ****         CyDelay(500);
  60              		.loc 1 53 0 discriminator 1
  61 0030 FA23     		mov	r3, #250
ARM GAS  C:\Users\JFDuval\AppData\Local\Temp\ccq4FbZ6.s 			page 3


  62 0032 5B00     		lsl	r3, r3, #1
  63 0034 181C     		mov	r0, r3
  64 0036 FFF7FEFF 		bl	CyDelay
  65              	.LBE2:
  54:..\src/main.c ****     }
  66              		.loc 1 54 0 discriminator 1
  67 003a F4E7     		b	.L2
  68              		.cfi_endproc
  69              	.LFE35:
  70              		.size	main, .-main
  71              		.text
  72              	.Letext0:
  73              		.file 2 ".\\Generated_Source\\PSoC4/cytypes.h"