ARM GAS  C:\Users\Steven\AppData\Local\Temp\ccCdlLee.s 			page 1


   1              		.cpu cortex-m0
   2              		.fpu softvfp
   3              		.eabi_attribute 20, 1
   4              		.eabi_attribute 21, 1
   5              		.eabi_attribute 23, 3
   6              		.eabi_attribute 24, 1
   7              		.eabi_attribute 25, 1
   8              		.eabi_attribute 26, 1
   9              		.eabi_attribute 30, 6
  10              		.eabi_attribute 34, 0
  11              		.eabi_attribute 18, 4
  12              		.code	16
  13              		.file	"SPI_1_SPI.c"
  14              		.text
  15              	.Ltext0:
  16              		.cfi_sections	.debug_frame
  17              		.section	.text.SPI_1_SpiInit,"ax",%progbits
  18              		.align	2
  19              		.global	SPI_1_SpiInit
  20              		.code	16
  21              		.thumb_func
  22              		.type	SPI_1_SpiInit, %function
  23              	SPI_1_SpiInit:
  24              	.LFB2:
  25              		.file 1 ".\\Generated_Source\\PSoC4\\SPI_1_SPI.c"
   1:.\Generated_Source\PSoC4/SPI_1_SPI.c **** /*******************************************************************************
   2:.\Generated_Source\PSoC4/SPI_1_SPI.c **** * File Name: SPI_1_SPI.c
   3:.\Generated_Source\PSoC4/SPI_1_SPI.c **** * Version 2.0
   4:.\Generated_Source\PSoC4/SPI_1_SPI.c **** *
   5:.\Generated_Source\PSoC4/SPI_1_SPI.c **** * Description:
   6:.\Generated_Source\PSoC4/SPI_1_SPI.c **** *  This file provides the source code to the API for the SCB Component in
   7:.\Generated_Source\PSoC4/SPI_1_SPI.c **** *  SPI mode.
   8:.\Generated_Source\PSoC4/SPI_1_SPI.c **** *
   9:.\Generated_Source\PSoC4/SPI_1_SPI.c **** * Note:
  10:.\Generated_Source\PSoC4/SPI_1_SPI.c **** *
  11:.\Generated_Source\PSoC4/SPI_1_SPI.c **** *******************************************************************************
  12:.\Generated_Source\PSoC4/SPI_1_SPI.c **** * Copyright 2013-2014, Cypress Semiconductor Corporation.  All rights reserved.
  13:.\Generated_Source\PSoC4/SPI_1_SPI.c **** * You may use this file only in accordance with the license, terms, conditions,
  14:.\Generated_Source\PSoC4/SPI_1_SPI.c **** * disclaimers, and limitations in the end user license agreement accompanying
  15:.\Generated_Source\PSoC4/SPI_1_SPI.c **** * the software package with which this file was provided.
  16:.\Generated_Source\PSoC4/SPI_1_SPI.c **** *******************************************************************************/
  17:.\Generated_Source\PSoC4/SPI_1_SPI.c **** 
  18:.\Generated_Source\PSoC4/SPI_1_SPI.c **** #include "SPI_1_PVT.h"
  19:.\Generated_Source\PSoC4/SPI_1_SPI.c **** #include "SPI_1_SPI_UART_PVT.h"
  20:.\Generated_Source\PSoC4/SPI_1_SPI.c **** 
  21:.\Generated_Source\PSoC4/SPI_1_SPI.c **** #if(SPI_1_SCB_MODE_UNCONFIG_CONST_CFG)
  22:.\Generated_Source\PSoC4/SPI_1_SPI.c **** 
  23:.\Generated_Source\PSoC4/SPI_1_SPI.c ****     /***************************************
  24:.\Generated_Source\PSoC4/SPI_1_SPI.c ****     *  Configuration Structure Initialization
  25:.\Generated_Source\PSoC4/SPI_1_SPI.c ****     ***************************************/
  26:.\Generated_Source\PSoC4/SPI_1_SPI.c **** 
  27:.\Generated_Source\PSoC4/SPI_1_SPI.c ****     const SPI_1_SPI_INIT_STRUCT SPI_1_configSpi =
  28:.\Generated_Source\PSoC4/SPI_1_SPI.c ****     {
  29:.\Generated_Source\PSoC4/SPI_1_SPI.c ****         SPI_1_SPI_MODE,
  30:.\Generated_Source\PSoC4/SPI_1_SPI.c ****         SPI_1_SPI_SUB_MODE,
  31:.\Generated_Source\PSoC4/SPI_1_SPI.c ****         SPI_1_SPI_CLOCK_MODE,
  32:.\Generated_Source\PSoC4/SPI_1_SPI.c ****         SPI_1_SPI_OVS_FACTOR,
ARM GAS  C:\Users\Steven\AppData\Local\Temp\ccCdlLee.s 			page 2


  33:.\Generated_Source\PSoC4/SPI_1_SPI.c ****         SPI_1_SPI_MEDIAN_FILTER_ENABLE,
  34:.\Generated_Source\PSoC4/SPI_1_SPI.c ****         SPI_1_SPI_LATE_MISO_SAMPLE_ENABLE,
  35:.\Generated_Source\PSoC4/SPI_1_SPI.c ****         SPI_1_SPI_WAKE_ENABLE,
  36:.\Generated_Source\PSoC4/SPI_1_SPI.c ****         SPI_1_SPI_RX_DATA_BITS_NUM,
  37:.\Generated_Source\PSoC4/SPI_1_SPI.c ****         SPI_1_SPI_TX_DATA_BITS_NUM,
  38:.\Generated_Source\PSoC4/SPI_1_SPI.c ****         SPI_1_SPI_BITS_ORDER,
  39:.\Generated_Source\PSoC4/SPI_1_SPI.c ****         SPI_1_SPI_TRANSFER_SEPARATION,
  40:.\Generated_Source\PSoC4/SPI_1_SPI.c ****         0u,
  41:.\Generated_Source\PSoC4/SPI_1_SPI.c ****         NULL,
  42:.\Generated_Source\PSoC4/SPI_1_SPI.c ****         0u,
  43:.\Generated_Source\PSoC4/SPI_1_SPI.c ****         NULL,
  44:.\Generated_Source\PSoC4/SPI_1_SPI.c ****         (uint32) SPI_1_SCB_IRQ_INTERNAL,
  45:.\Generated_Source\PSoC4/SPI_1_SPI.c ****         SPI_1_SPI_INTR_RX_MASK,
  46:.\Generated_Source\PSoC4/SPI_1_SPI.c ****         SPI_1_SPI_RX_TRIGGER_LEVEL,
  47:.\Generated_Source\PSoC4/SPI_1_SPI.c ****         SPI_1_SPI_INTR_TX_MASK,
  48:.\Generated_Source\PSoC4/SPI_1_SPI.c ****         SPI_1_SPI_TX_TRIGGER_LEVEL,
  49:.\Generated_Source\PSoC4/SPI_1_SPI.c ****         (uint8) SPI_1_SPI_BYTE_MODE_ENABLE,
  50:.\Generated_Source\PSoC4/SPI_1_SPI.c ****         (uint8) SPI_1_SPI_FREE_RUN_SCLK_ENABLE,
  51:.\Generated_Source\PSoC4/SPI_1_SPI.c ****         (uint8) SPI_1_SPI_SS_POLARITY
  52:.\Generated_Source\PSoC4/SPI_1_SPI.c ****     };
  53:.\Generated_Source\PSoC4/SPI_1_SPI.c **** 
  54:.\Generated_Source\PSoC4/SPI_1_SPI.c **** 
  55:.\Generated_Source\PSoC4/SPI_1_SPI.c ****     /*******************************************************************************
  56:.\Generated_Source\PSoC4/SPI_1_SPI.c ****     * Function Name: SPI_1_SpiInit
  57:.\Generated_Source\PSoC4/SPI_1_SPI.c ****     ********************************************************************************
  58:.\Generated_Source\PSoC4/SPI_1_SPI.c ****     *
  59:.\Generated_Source\PSoC4/SPI_1_SPI.c ****     * Summary:
  60:.\Generated_Source\PSoC4/SPI_1_SPI.c ****     *  Configures the SCB for the SPI operation.
  61:.\Generated_Source\PSoC4/SPI_1_SPI.c ****     *
  62:.\Generated_Source\PSoC4/SPI_1_SPI.c ****     * Parameters:
  63:.\Generated_Source\PSoC4/SPI_1_SPI.c ****     *  config:  Pointer to a structure that contains the following ordered list of
  64:.\Generated_Source\PSoC4/SPI_1_SPI.c ****     *           fields. These fields match the selections available in the
  65:.\Generated_Source\PSoC4/SPI_1_SPI.c ****     *           customizer.
  66:.\Generated_Source\PSoC4/SPI_1_SPI.c ****     *
  67:.\Generated_Source\PSoC4/SPI_1_SPI.c ****     * Return:
  68:.\Generated_Source\PSoC4/SPI_1_SPI.c ****     *  None
  69:.\Generated_Source\PSoC4/SPI_1_SPI.c ****     *
  70:.\Generated_Source\PSoC4/SPI_1_SPI.c ****     *******************************************************************************/
  71:.\Generated_Source\PSoC4/SPI_1_SPI.c ****     void SPI_1_SpiInit(const SPI_1_SPI_INIT_STRUCT *config)
  72:.\Generated_Source\PSoC4/SPI_1_SPI.c ****     {
  73:.\Generated_Source\PSoC4/SPI_1_SPI.c ****         if(NULL == config)
  74:.\Generated_Source\PSoC4/SPI_1_SPI.c ****         {
  75:.\Generated_Source\PSoC4/SPI_1_SPI.c ****             CYASSERT(0u != 0u); /* Halt execution due to bad function parameter */
  76:.\Generated_Source\PSoC4/SPI_1_SPI.c ****         }
  77:.\Generated_Source\PSoC4/SPI_1_SPI.c ****         else
  78:.\Generated_Source\PSoC4/SPI_1_SPI.c ****         {
  79:.\Generated_Source\PSoC4/SPI_1_SPI.c ****             /* Configure pins */
  80:.\Generated_Source\PSoC4/SPI_1_SPI.c ****             SPI_1_SetPins(SPI_1_SCB_MODE_SPI, config->mode, SPI_1_DUMMY_PARAM);
  81:.\Generated_Source\PSoC4/SPI_1_SPI.c **** 
  82:.\Generated_Source\PSoC4/SPI_1_SPI.c ****             /* Store internal configuration */
  83:.\Generated_Source\PSoC4/SPI_1_SPI.c ****             SPI_1_scbMode       = (uint8) SPI_1_SCB_MODE_SPI;
  84:.\Generated_Source\PSoC4/SPI_1_SPI.c ****             SPI_1_scbEnableWake = (uint8) config->enableWake;
  85:.\Generated_Source\PSoC4/SPI_1_SPI.c ****             SPI_1_scbEnableIntr = (uint8) config->enableInterrupt;
  86:.\Generated_Source\PSoC4/SPI_1_SPI.c **** 
  87:.\Generated_Source\PSoC4/SPI_1_SPI.c ****             /* Set RX direction internal variables */
  88:.\Generated_Source\PSoC4/SPI_1_SPI.c ****             SPI_1_rxBuffer      =         config->rxBuffer;
  89:.\Generated_Source\PSoC4/SPI_1_SPI.c ****             SPI_1_rxDataBits    = (uint8) config->rxDataBits;
ARM GAS  C:\Users\Steven\AppData\Local\Temp\ccCdlLee.s 			page 3


  90:.\Generated_Source\PSoC4/SPI_1_SPI.c ****             SPI_1_rxBufferSize  = (uint8) config->rxBufferSize;
  91:.\Generated_Source\PSoC4/SPI_1_SPI.c **** 
  92:.\Generated_Source\PSoC4/SPI_1_SPI.c ****             /* Set TX direction internal variables */
  93:.\Generated_Source\PSoC4/SPI_1_SPI.c ****             SPI_1_txBuffer      =         config->txBuffer;
  94:.\Generated_Source\PSoC4/SPI_1_SPI.c ****             SPI_1_txDataBits    = (uint8) config->txDataBits;
  95:.\Generated_Source\PSoC4/SPI_1_SPI.c ****             SPI_1_txBufferSize  = (uint8) config->txBufferSize;
  96:.\Generated_Source\PSoC4/SPI_1_SPI.c **** 
  97:.\Generated_Source\PSoC4/SPI_1_SPI.c ****             /* Configure SPI interface */
  98:.\Generated_Source\PSoC4/SPI_1_SPI.c ****             SPI_1_CTRL_REG     = SPI_1_GET_CTRL_OVS(config->oversample)           |
  99:.\Generated_Source\PSoC4/SPI_1_SPI.c ****                                             SPI_1_GET_CTRL_BYTE_MODE(config->enableByteMode) |
 100:.\Generated_Source\PSoC4/SPI_1_SPI.c ****                                             SPI_1_GET_CTRL_EC_AM_MODE(config->enableWake)    |
 101:.\Generated_Source\PSoC4/SPI_1_SPI.c ****                                             SPI_1_CTRL_SPI;
 102:.\Generated_Source\PSoC4/SPI_1_SPI.c **** 
 103:.\Generated_Source\PSoC4/SPI_1_SPI.c ****             SPI_1_SPI_CTRL_REG = SPI_1_GET_SPI_CTRL_CONTINUOUS    (config->transferSeperation)  |
 104:.\Generated_Source\PSoC4/SPI_1_SPI.c ****                                             SPI_1_GET_SPI_CTRL_SELECT_PRECEDE(config->submode &
 105:.\Generated_Source\PSoC4/SPI_1_SPI.c ****                                                                           SPI_1_SPI_MODE_TI_PRECEDE
 106:.\Generated_Source\PSoC4/SPI_1_SPI.c ****                                             SPI_1_GET_SPI_CTRL_SCLK_MODE     (config->sclkMode)    
 107:.\Generated_Source\PSoC4/SPI_1_SPI.c ****                                             SPI_1_GET_SPI_CTRL_LATE_MISO_SAMPLE(config->enableLateS
 108:.\Generated_Source\PSoC4/SPI_1_SPI.c ****                                             SPI_1_GET_SPI_CTRL_SCLK_CONTINUOUS(config->enableFreeRu
 109:.\Generated_Source\PSoC4/SPI_1_SPI.c ****                                             SPI_1_GET_SPI_CTRL_SSEL_POLARITY (config->polaritySs)  
 110:.\Generated_Source\PSoC4/SPI_1_SPI.c ****                                             SPI_1_GET_SPI_CTRL_SUB_MODE      (config->submode)     
 111:.\Generated_Source\PSoC4/SPI_1_SPI.c ****                                             SPI_1_GET_SPI_CTRL_MASTER_MODE   (config->mode);
 112:.\Generated_Source\PSoC4/SPI_1_SPI.c **** 
 113:.\Generated_Source\PSoC4/SPI_1_SPI.c ****             /* Configure RX direction */
 114:.\Generated_Source\PSoC4/SPI_1_SPI.c ****             SPI_1_RX_CTRL_REG     =  SPI_1_GET_RX_CTRL_DATA_WIDTH(config->rxDataBits)         |
 115:.\Generated_Source\PSoC4/SPI_1_SPI.c ****                                                 SPI_1_GET_RX_CTRL_BIT_ORDER (config->bitOrder)     
 116:.\Generated_Source\PSoC4/SPI_1_SPI.c ****                                                 SPI_1_GET_RX_CTRL_MEDIAN    (config->enableMedianFi
 117:.\Generated_Source\PSoC4/SPI_1_SPI.c ****                                                 SPI_1_SPI_RX_CTRL;
 118:.\Generated_Source\PSoC4/SPI_1_SPI.c **** 
 119:.\Generated_Source\PSoC4/SPI_1_SPI.c ****             SPI_1_RX_FIFO_CTRL_REG = SPI_1_GET_RX_FIFO_CTRL_TRIGGER_LEVEL(config->rxTriggerLevel);
 120:.\Generated_Source\PSoC4/SPI_1_SPI.c **** 
 121:.\Generated_Source\PSoC4/SPI_1_SPI.c ****             /* Configure TX direction */
 122:.\Generated_Source\PSoC4/SPI_1_SPI.c ****             SPI_1_TX_CTRL_REG      = SPI_1_GET_TX_CTRL_DATA_WIDTH(config->txDataBits) |
 123:.\Generated_Source\PSoC4/SPI_1_SPI.c ****                                                 SPI_1_GET_TX_CTRL_BIT_ORDER (config->bitOrder)   |
 124:.\Generated_Source\PSoC4/SPI_1_SPI.c ****                                                 SPI_1_SPI_TX_CTRL;
 125:.\Generated_Source\PSoC4/SPI_1_SPI.c **** 
 126:.\Generated_Source\PSoC4/SPI_1_SPI.c ****             SPI_1_TX_FIFO_CTRL_REG = SPI_1_GET_TX_FIFO_CTRL_TRIGGER_LEVEL(config->txTriggerLevel);
 127:.\Generated_Source\PSoC4/SPI_1_SPI.c **** 
 128:.\Generated_Source\PSoC4/SPI_1_SPI.c ****             /* Configure interrupt with SPI handler but do not enable it */
 129:.\Generated_Source\PSoC4/SPI_1_SPI.c ****             CyIntDisable    (SPI_1_ISR_NUMBER);
 130:.\Generated_Source\PSoC4/SPI_1_SPI.c ****             CyIntSetPriority(SPI_1_ISR_NUMBER, SPI_1_ISR_PRIORITY);
 131:.\Generated_Source\PSoC4/SPI_1_SPI.c ****             (void) CyIntSetVector(SPI_1_ISR_NUMBER, &SPI_1_SPI_UART_ISR);
 132:.\Generated_Source\PSoC4/SPI_1_SPI.c **** 
 133:.\Generated_Source\PSoC4/SPI_1_SPI.c ****             /* Configure interrupt sources */
 134:.\Generated_Source\PSoC4/SPI_1_SPI.c ****             SPI_1_INTR_I2C_EC_MASK_REG = SPI_1_NO_INTR_SOURCES;
 135:.\Generated_Source\PSoC4/SPI_1_SPI.c ****             SPI_1_INTR_SPI_EC_MASK_REG = SPI_1_NO_INTR_SOURCES;
 136:.\Generated_Source\PSoC4/SPI_1_SPI.c ****             SPI_1_INTR_SLAVE_MASK_REG  = SPI_1_GET_SPI_INTR_SLAVE_MASK(config->rxInterruptMask);
 137:.\Generated_Source\PSoC4/SPI_1_SPI.c ****             SPI_1_INTR_MASTER_MASK_REG = SPI_1_GET_SPI_INTR_MASTER_MASK(config->txInterruptMask);
 138:.\Generated_Source\PSoC4/SPI_1_SPI.c ****             SPI_1_INTR_RX_MASK_REG     = SPI_1_GET_SPI_INTR_RX_MASK(config->rxInterruptMask);
 139:.\Generated_Source\PSoC4/SPI_1_SPI.c ****             SPI_1_INTR_TX_MASK_REG     = SPI_1_GET_SPI_INTR_TX_MASK(config->txInterruptMask);
 140:.\Generated_Source\PSoC4/SPI_1_SPI.c **** 
 141:.\Generated_Source\PSoC4/SPI_1_SPI.c ****             /* Set active SS0 */
 142:.\Generated_Source\PSoC4/SPI_1_SPI.c ****             SPI_1_SpiSetActiveSlaveSelect(SPI_1_SPI_SLAVE_SELECT0);
 143:.\Generated_Source\PSoC4/SPI_1_SPI.c **** 
 144:.\Generated_Source\PSoC4/SPI_1_SPI.c ****             /* Clear RX buffer indexes */
 145:.\Generated_Source\PSoC4/SPI_1_SPI.c ****             SPI_1_rxBufferHead     = 0u;
 146:.\Generated_Source\PSoC4/SPI_1_SPI.c ****             SPI_1_rxBufferTail     = 0u;
ARM GAS  C:\Users\Steven\AppData\Local\Temp\ccCdlLee.s 			page 4


 147:.\Generated_Source\PSoC4/SPI_1_SPI.c ****             SPI_1_rxBufferOverflow = 0u;
 148:.\Generated_Source\PSoC4/SPI_1_SPI.c **** 
 149:.\Generated_Source\PSoC4/SPI_1_SPI.c ****             /* Clear TX buffer indexes */
 150:.\Generated_Source\PSoC4/SPI_1_SPI.c ****             SPI_1_txBufferHead = 0u;
 151:.\Generated_Source\PSoC4/SPI_1_SPI.c ****             SPI_1_txBufferTail = 0u;
 152:.\Generated_Source\PSoC4/SPI_1_SPI.c ****         }
 153:.\Generated_Source\PSoC4/SPI_1_SPI.c ****     }
 154:.\Generated_Source\PSoC4/SPI_1_SPI.c **** 
 155:.\Generated_Source\PSoC4/SPI_1_SPI.c **** #else
 156:.\Generated_Source\PSoC4/SPI_1_SPI.c **** 
 157:.\Generated_Source\PSoC4/SPI_1_SPI.c ****     /*******************************************************************************
 158:.\Generated_Source\PSoC4/SPI_1_SPI.c ****     * Function Name: SPI_1_SpiInit
 159:.\Generated_Source\PSoC4/SPI_1_SPI.c ****     ********************************************************************************
 160:.\Generated_Source\PSoC4/SPI_1_SPI.c ****     *
 161:.\Generated_Source\PSoC4/SPI_1_SPI.c ****     * Summary:
 162:.\Generated_Source\PSoC4/SPI_1_SPI.c ****     *  Configures the SCB for the SPI operation.
 163:.\Generated_Source\PSoC4/SPI_1_SPI.c ****     *
 164:.\Generated_Source\PSoC4/SPI_1_SPI.c ****     * Parameters:
 165:.\Generated_Source\PSoC4/SPI_1_SPI.c ****     *  None
 166:.\Generated_Source\PSoC4/SPI_1_SPI.c ****     *
 167:.\Generated_Source\PSoC4/SPI_1_SPI.c ****     * Return:
 168:.\Generated_Source\PSoC4/SPI_1_SPI.c ****     *  None
 169:.\Generated_Source\PSoC4/SPI_1_SPI.c ****     *
 170:.\Generated_Source\PSoC4/SPI_1_SPI.c ****     *******************************************************************************/
 171:.\Generated_Source\PSoC4/SPI_1_SPI.c ****     void SPI_1_SpiInit(void)
 172:.\Generated_Source\PSoC4/SPI_1_SPI.c ****     {
  26              		.loc 1 172 0
  27              		.cfi_startproc
  28 0000 80B5     		push	{r7, lr}
  29              		.cfi_def_cfa_offset 8
  30              		.cfi_offset 7, -8
  31              		.cfi_offset 14, -4
  32 0002 00AF     		add	r7, sp, #0
  33              		.cfi_def_cfa_register 7
 173:.\Generated_Source\PSoC4/SPI_1_SPI.c ****         /* Configure SPI interface */
 174:.\Generated_Source\PSoC4/SPI_1_SPI.c ****         SPI_1_CTRL_REG     = SPI_1_SPI_DEFAULT_CTRL;
  34              		.loc 1 174 0
  35 0004 144B     		ldr	r3, .L2
  36 0006 154A     		ldr	r2, .L2+4
  37 0008 1A60     		str	r2, [r3]
 175:.\Generated_Source\PSoC4/SPI_1_SPI.c ****         SPI_1_SPI_CTRL_REG = SPI_1_SPI_DEFAULT_SPI_CTRL;
  38              		.loc 1 175 0
  39 000a 154B     		ldr	r3, .L2+8
  40 000c 154A     		ldr	r2, .L2+12
  41 000e 1A60     		str	r2, [r3]
 176:.\Generated_Source\PSoC4/SPI_1_SPI.c **** 
 177:.\Generated_Source\PSoC4/SPI_1_SPI.c ****         /* Configure TX and RX direction */
 178:.\Generated_Source\PSoC4/SPI_1_SPI.c ****         SPI_1_RX_CTRL_REG      = SPI_1_SPI_DEFAULT_RX_CTRL;
  42              		.loc 1 178 0
  43 0010 154B     		ldr	r3, .L2+16
  44 0012 164A     		ldr	r2, .L2+20
  45 0014 1A60     		str	r2, [r3]
 179:.\Generated_Source\PSoC4/SPI_1_SPI.c ****         SPI_1_RX_FIFO_CTRL_REG = SPI_1_SPI_DEFAULT_RX_FIFO_CTRL;
  46              		.loc 1 179 0
  47 0016 164B     		ldr	r3, .L2+24
  48 0018 0722     		mov	r2, #7
  49 001a 1A60     		str	r2, [r3]
ARM GAS  C:\Users\Steven\AppData\Local\Temp\ccCdlLee.s 			page 5


 180:.\Generated_Source\PSoC4/SPI_1_SPI.c **** 
 181:.\Generated_Source\PSoC4/SPI_1_SPI.c ****         /* Configure TX and RX direction */
 182:.\Generated_Source\PSoC4/SPI_1_SPI.c ****         SPI_1_TX_CTRL_REG      = SPI_1_SPI_DEFAULT_TX_CTRL;
  50              		.loc 1 182 0
  51 001c 154B     		ldr	r3, .L2+28
  52 001e 134A     		ldr	r2, .L2+20
  53 0020 1A60     		str	r2, [r3]
 183:.\Generated_Source\PSoC4/SPI_1_SPI.c ****         SPI_1_TX_FIFO_CTRL_REG = SPI_1_SPI_DEFAULT_TX_FIFO_CTRL;
  54              		.loc 1 183 0
  55 0022 154B     		ldr	r3, .L2+32
  56 0024 0022     		mov	r2, #0
  57 0026 1A60     		str	r2, [r3]
 184:.\Generated_Source\PSoC4/SPI_1_SPI.c **** 
 185:.\Generated_Source\PSoC4/SPI_1_SPI.c ****         /* Configure interrupt with SPI handler but do not enable it */
 186:.\Generated_Source\PSoC4/SPI_1_SPI.c ****     #if(SPI_1_SCB_IRQ_INTERNAL)
 187:.\Generated_Source\PSoC4/SPI_1_SPI.c ****             CyIntDisable    (SPI_1_ISR_NUMBER);
 188:.\Generated_Source\PSoC4/SPI_1_SPI.c ****             CyIntSetPriority(SPI_1_ISR_NUMBER, SPI_1_ISR_PRIORITY);
 189:.\Generated_Source\PSoC4/SPI_1_SPI.c ****             (void) CyIntSetVector(SPI_1_ISR_NUMBER, &SPI_1_SPI_UART_ISR);
 190:.\Generated_Source\PSoC4/SPI_1_SPI.c ****     #endif /* (SPI_1_SCB_IRQ_INTERNAL) */
 191:.\Generated_Source\PSoC4/SPI_1_SPI.c **** 
 192:.\Generated_Source\PSoC4/SPI_1_SPI.c ****         /* Configure interrupt sources */
 193:.\Generated_Source\PSoC4/SPI_1_SPI.c ****         SPI_1_INTR_I2C_EC_MASK_REG = SPI_1_SPI_DEFAULT_INTR_I2C_EC_MASK;
  58              		.loc 1 193 0
  59 0028 144B     		ldr	r3, .L2+36
  60 002a 0022     		mov	r2, #0
  61 002c 1A60     		str	r2, [r3]
 194:.\Generated_Source\PSoC4/SPI_1_SPI.c ****         SPI_1_INTR_SPI_EC_MASK_REG = SPI_1_SPI_DEFAULT_INTR_SPI_EC_MASK;
  62              		.loc 1 194 0
  63 002e 144B     		ldr	r3, .L2+40
  64 0030 0022     		mov	r2, #0
  65 0032 1A60     		str	r2, [r3]
 195:.\Generated_Source\PSoC4/SPI_1_SPI.c ****         SPI_1_INTR_SLAVE_MASK_REG  = SPI_1_SPI_DEFAULT_INTR_SLAVE_MASK;
  66              		.loc 1 195 0
  67 0034 134B     		ldr	r3, .L2+44
  68 0036 0022     		mov	r2, #0
  69 0038 1A60     		str	r2, [r3]
 196:.\Generated_Source\PSoC4/SPI_1_SPI.c ****         SPI_1_INTR_MASTER_MASK_REG = SPI_1_SPI_DEFAULT_INTR_MASTER_MASK;
  70              		.loc 1 196 0
  71 003a 134B     		ldr	r3, .L2+48
  72 003c 0022     		mov	r2, #0
  73 003e 1A60     		str	r2, [r3]
 197:.\Generated_Source\PSoC4/SPI_1_SPI.c ****         SPI_1_INTR_RX_MASK_REG     = SPI_1_SPI_DEFAULT_INTR_RX_MASK;
  74              		.loc 1 197 0
  75 0040 124B     		ldr	r3, .L2+52
  76 0042 0022     		mov	r2, #0
  77 0044 1A60     		str	r2, [r3]
 198:.\Generated_Source\PSoC4/SPI_1_SPI.c ****         SPI_1_INTR_TX_MASK_REG     = SPI_1_SPI_DEFAULT_INTR_TX_MASK;
  78              		.loc 1 198 0
  79 0046 124B     		ldr	r3, .L2+56
  80 0048 0022     		mov	r2, #0
  81 004a 1A60     		str	r2, [r3]
 199:.\Generated_Source\PSoC4/SPI_1_SPI.c **** 
 200:.\Generated_Source\PSoC4/SPI_1_SPI.c ****         /* Set active SS0 for master */
 201:.\Generated_Source\PSoC4/SPI_1_SPI.c ****     #if (SPI_1_SPI_MASTER_CONST)
 202:.\Generated_Source\PSoC4/SPI_1_SPI.c ****         SPI_1_SpiSetActiveSlaveSelect(SPI_1_SPI_SLAVE_SELECT0);
  82              		.loc 1 202 0
  83 004c 0020     		mov	r0, #0
ARM GAS  C:\Users\Steven\AppData\Local\Temp\ccCdlLee.s 			page 6


  84 004e FFF7FEFF 		bl	SPI_1_SpiSetActiveSlaveSelect
 203:.\Generated_Source\PSoC4/SPI_1_SPI.c ****     #endif /* (SPI_1_SPI_MASTER_CONST) */
 204:.\Generated_Source\PSoC4/SPI_1_SPI.c **** 
 205:.\Generated_Source\PSoC4/SPI_1_SPI.c ****     #if(SPI_1_INTERNAL_RX_SW_BUFFER_CONST)
 206:.\Generated_Source\PSoC4/SPI_1_SPI.c ****         SPI_1_rxBufferHead     = 0u;
 207:.\Generated_Source\PSoC4/SPI_1_SPI.c ****         SPI_1_rxBufferTail     = 0u;
 208:.\Generated_Source\PSoC4/SPI_1_SPI.c ****         SPI_1_rxBufferOverflow = 0u;
 209:.\Generated_Source\PSoC4/SPI_1_SPI.c ****     #endif /* (SPI_1_INTERNAL_RX_SW_BUFFER_CONST) */
 210:.\Generated_Source\PSoC4/SPI_1_SPI.c **** 
 211:.\Generated_Source\PSoC4/SPI_1_SPI.c ****     #if(SPI_1_INTERNAL_TX_SW_BUFFER_CONST)
 212:.\Generated_Source\PSoC4/SPI_1_SPI.c ****         SPI_1_txBufferHead = 0u;
 213:.\Generated_Source\PSoC4/SPI_1_SPI.c ****         SPI_1_txBufferTail = 0u;
 214:.\Generated_Source\PSoC4/SPI_1_SPI.c ****     #endif /* (SPI_1_INTERNAL_TX_SW_BUFFER_CONST) */
 215:.\Generated_Source\PSoC4/SPI_1_SPI.c **** 
 216:.\Generated_Source\PSoC4/SPI_1_SPI.c **** 
 217:.\Generated_Source\PSoC4/SPI_1_SPI.c ****     }
  85              		.loc 1 217 0
  86 0052 BD46     		mov	sp, r7
  87              		@ sp needed
  88 0054 80BD     		pop	{r7, pc}
  89              	.L3:
  90 0056 C046     		.align	2
  91              	.L2:
  92 0058 00002540 		.word	1076166656
  93 005c 0F000001 		.word	16777231
  94 0060 20002540 		.word	1076166688
  95 0064 01000080 		.word	-2147483647
  96 0068 00032540 		.word	1076167424
  97 006c 07010080 		.word	-2147483385
  98 0070 04032540 		.word	1076167428
  99 0074 00022540 		.word	1076167168
 100 0078 04022540 		.word	1076167172
 101 007c 880E2540 		.word	1076170376
 102 0080 C80E2540 		.word	1076170440
 103 0084 480F2540 		.word	1076170568
 104 0088 080F2540 		.word	1076170504
 105 008c C80F2540 		.word	1076170696
 106 0090 880F2540 		.word	1076170632
 107              		.cfi_endproc
 108              	.LFE2:
 109              		.size	SPI_1_SpiInit, .-SPI_1_SpiInit
 110              		.section	.text.SPI_1_SpiSetActiveSlaveSelect,"ax",%progbits
 111              		.align	2
 112              		.global	SPI_1_SpiSetActiveSlaveSelect
 113              		.code	16
 114              		.thumb_func
 115              		.type	SPI_1_SpiSetActiveSlaveSelect, %function
 116              	SPI_1_SpiSetActiveSlaveSelect:
 117              	.LFB3:
 218:.\Generated_Source\PSoC4/SPI_1_SPI.c **** #endif /* (SPI_1_SCB_MODE_UNCONFIG_CONST_CFG) */
 219:.\Generated_Source\PSoC4/SPI_1_SPI.c **** 
 220:.\Generated_Source\PSoC4/SPI_1_SPI.c **** 
 221:.\Generated_Source\PSoC4/SPI_1_SPI.c **** #if (SPI_1_SPI_MASTER_CONST)
 222:.\Generated_Source\PSoC4/SPI_1_SPI.c ****     /*******************************************************************************
 223:.\Generated_Source\PSoC4/SPI_1_SPI.c ****     * Function Name: SPI_1_SetActiveSlaveSelect
 224:.\Generated_Source\PSoC4/SPI_1_SPI.c ****     ********************************************************************************
 225:.\Generated_Source\PSoC4/SPI_1_SPI.c ****     *
ARM GAS  C:\Users\Steven\AppData\Local\Temp\ccCdlLee.s 			page 7


 226:.\Generated_Source\PSoC4/SPI_1_SPI.c ****     * Summary:
 227:.\Generated_Source\PSoC4/SPI_1_SPI.c ****     *  Selects one of the four slave select lines to be active during the transfer.
 228:.\Generated_Source\PSoC4/SPI_1_SPI.c ****     *  After initialization the active slave select line is 0.
 229:.\Generated_Source\PSoC4/SPI_1_SPI.c ****     *  The component should be in one of the following states to change the active
 230:.\Generated_Source\PSoC4/SPI_1_SPI.c ****     *  slave select signal source correctly:
 231:.\Generated_Source\PSoC4/SPI_1_SPI.c ****     *   - The component is disabled
 232:.\Generated_Source\PSoC4/SPI_1_SPI.c ****     *   - The component has completed transfer (TX FIFO is empty and the
 233:.\Generated_Source\PSoC4/SPI_1_SPI.c ****     *     SCB_INTR_MASTER_SPI_DONE status is set)
 234:.\Generated_Source\PSoC4/SPI_1_SPI.c ****     *  This function does not check that these conditions are met.
 235:.\Generated_Source\PSoC4/SPI_1_SPI.c ****     *  This function is only applicable to SPI Master mode of operation.
 236:.\Generated_Source\PSoC4/SPI_1_SPI.c ****     *
 237:.\Generated_Source\PSoC4/SPI_1_SPI.c ****     * Parameters:
 238:.\Generated_Source\PSoC4/SPI_1_SPI.c ****     *  slaveSelect: slave select line which will be active while the following
 239:.\Generated_Source\PSoC4/SPI_1_SPI.c ****     *               transfer.
 240:.\Generated_Source\PSoC4/SPI_1_SPI.c ****     *   SPI_1_SPI_SLAVE_SELECT0 - Slave select 0
 241:.\Generated_Source\PSoC4/SPI_1_SPI.c ****     *   SPI_1_SPI_SLAVE_SELECT1 - Slave select 1
 242:.\Generated_Source\PSoC4/SPI_1_SPI.c ****     *   SPI_1_SPI_SLAVE_SELECT2 - Slave select 2
 243:.\Generated_Source\PSoC4/SPI_1_SPI.c ****     *   SPI_1_SPI_SLAVE_SELECT3 - Slave select 3
 244:.\Generated_Source\PSoC4/SPI_1_SPI.c ****     *
 245:.\Generated_Source\PSoC4/SPI_1_SPI.c ****     * Return:
 246:.\Generated_Source\PSoC4/SPI_1_SPI.c ****     *  None
 247:.\Generated_Source\PSoC4/SPI_1_SPI.c ****     *
 248:.\Generated_Source\PSoC4/SPI_1_SPI.c ****     *******************************************************************************/
 249:.\Generated_Source\PSoC4/SPI_1_SPI.c ****     void SPI_1_SpiSetActiveSlaveSelect(uint32 slaveSelect)
 250:.\Generated_Source\PSoC4/SPI_1_SPI.c ****     {
 118              		.loc 1 250 0
 119              		.cfi_startproc
 120 0000 80B5     		push	{r7, lr}
 121              		.cfi_def_cfa_offset 8
 122              		.cfi_offset 7, -8
 123              		.cfi_offset 14, -4
 124 0002 84B0     		sub	sp, sp, #16
 125              		.cfi_def_cfa_offset 24
 126 0004 00AF     		add	r7, sp, #0
 127              		.cfi_def_cfa_register 7
 128 0006 7860     		str	r0, [r7, #4]
 251:.\Generated_Source\PSoC4/SPI_1_SPI.c ****         uint32 spiCtrl;
 252:.\Generated_Source\PSoC4/SPI_1_SPI.c **** 
 253:.\Generated_Source\PSoC4/SPI_1_SPI.c ****         spiCtrl = SPI_1_SPI_CTRL_REG;
 129              		.loc 1 253 0
 130 0008 0A4B     		ldr	r3, .L5
 131 000a 1B68     		ldr	r3, [r3]
 132 000c FB60     		str	r3, [r7, #12]
 254:.\Generated_Source\PSoC4/SPI_1_SPI.c **** 
 255:.\Generated_Source\PSoC4/SPI_1_SPI.c ****         spiCtrl &= (uint32) ~SPI_1_SPI_CTRL_SLAVE_SELECT_MASK;
 133              		.loc 1 255 0
 134 000e FA68     		ldr	r2, [r7, #12]
 135 0010 094B     		ldr	r3, .L5+4
 136 0012 1340     		and	r3, r2
 137 0014 FB60     		str	r3, [r7, #12]
 256:.\Generated_Source\PSoC4/SPI_1_SPI.c ****         spiCtrl |= (uint32)  SPI_1_GET_SPI_CTRL_SS(slaveSelect);
 138              		.loc 1 256 0
 139 0016 7B68     		ldr	r3, [r7, #4]
 140 0018 9A06     		lsl	r2, r3, #26
 141 001a C023     		mov	r3, #192
 142 001c 1B05     		lsl	r3, r3, #20
 143 001e 1340     		and	r3, r2
ARM GAS  C:\Users\Steven\AppData\Local\Temp\ccCdlLee.s 			page 8


 144 0020 FA68     		ldr	r2, [r7, #12]
 145 0022 1343     		orr	r3, r2
 146 0024 FB60     		str	r3, [r7, #12]
 257:.\Generated_Source\PSoC4/SPI_1_SPI.c **** 
 258:.\Generated_Source\PSoC4/SPI_1_SPI.c ****         SPI_1_SPI_CTRL_REG = spiCtrl;
 147              		.loc 1 258 0
 148 0026 034B     		ldr	r3, .L5
 149 0028 FA68     		ldr	r2, [r7, #12]
 150 002a 1A60     		str	r2, [r3]
 259:.\Generated_Source\PSoC4/SPI_1_SPI.c ****     }
 151              		.loc 1 259 0
 152 002c BD46     		mov	sp, r7
 153 002e 04B0     		add	sp, sp, #16
 154              		@ sp needed
 155 0030 80BD     		pop	{r7, pc}
 156              	.L6:
 157 0032 C046     		.align	2
 158              	.L5:
 159 0034 20002540 		.word	1076166688
 160 0038 FFFFFFF3 		.word	-201326593
 161              		.cfi_endproc
 162              	.LFE3:
 163              		.size	SPI_1_SpiSetActiveSlaveSelect, .-SPI_1_SpiSetActiveSlaveSelect
 164              		.section	.text.SPI_1_SpiSetSlaveSelectPolarity,"ax",%progbits
 165              		.align	2
 166              		.global	SPI_1_SpiSetSlaveSelectPolarity
 167              		.code	16
 168              		.thumb_func
 169              		.type	SPI_1_SpiSetSlaveSelectPolarity, %function
 170              	SPI_1_SpiSetSlaveSelectPolarity:
 171              	.LFB4:
 260:.\Generated_Source\PSoC4/SPI_1_SPI.c **** #endif /* (SPI_1_SPI_MASTER_CONST) */
 261:.\Generated_Source\PSoC4/SPI_1_SPI.c **** 
 262:.\Generated_Source\PSoC4/SPI_1_SPI.c **** 
 263:.\Generated_Source\PSoC4/SPI_1_SPI.c **** #if !(SPI_1_CY_SCBIP_V0 || SPI_1_CY_SCBIP_V1)
 264:.\Generated_Source\PSoC4/SPI_1_SPI.c ****     /*******************************************************************************
 265:.\Generated_Source\PSoC4/SPI_1_SPI.c ****     * Function Name: SPI_1_SpiSetSlaveSelectPolarity
 266:.\Generated_Source\PSoC4/SPI_1_SPI.c ****     ********************************************************************************
 267:.\Generated_Source\PSoC4/SPI_1_SPI.c ****     *
 268:.\Generated_Source\PSoC4/SPI_1_SPI.c ****     * Summary:
 269:.\Generated_Source\PSoC4/SPI_1_SPI.c ****     *  Sets active polarity for slave select line.
 270:.\Generated_Source\PSoC4/SPI_1_SPI.c ****     *  The component should be in one of the following states to change the active
 271:.\Generated_Source\PSoC4/SPI_1_SPI.c ****     *  slave select signal source correctly:
 272:.\Generated_Source\PSoC4/SPI_1_SPI.c ****     *   - The component is disabled.
 273:.\Generated_Source\PSoC4/SPI_1_SPI.c ****     *   - The component has completed transfer.
 274:.\Generated_Source\PSoC4/SPI_1_SPI.c ****     *  This function does not check that these conditions are met.
 275:.\Generated_Source\PSoC4/SPI_1_SPI.c ****     *
 276:.\Generated_Source\PSoC4/SPI_1_SPI.c ****     * Parameters:
 277:.\Generated_Source\PSoC4/SPI_1_SPI.c ****     *  slaveSelect: slave select line to change active polarity.
 278:.\Generated_Source\PSoC4/SPI_1_SPI.c ****     *   SPI_1_SPI_SLAVE_SELECT0 - Slave select 0
 279:.\Generated_Source\PSoC4/SPI_1_SPI.c ****     *   SPI_1_SPI_SLAVE_SELECT1 - Slave select 1
 280:.\Generated_Source\PSoC4/SPI_1_SPI.c ****     *   SPI_1_SPI_SLAVE_SELECT2 - Slave select 2
 281:.\Generated_Source\PSoC4/SPI_1_SPI.c ****     *   SPI_1_SPI_SLAVE_SELECT3 - Slave select 3
 282:.\Generated_Source\PSoC4/SPI_1_SPI.c ****     *
 283:.\Generated_Source\PSoC4/SPI_1_SPI.c ****     *  polarity: active polarity of slave select line.
 284:.\Generated_Source\PSoC4/SPI_1_SPI.c ****     *   SPI_1_SPI_SS_ACTIVE_LOW  - Slave select is active low
 285:.\Generated_Source\PSoC4/SPI_1_SPI.c ****     *   SPI_1_SPI_SS_ACTIVE_HIGH - Slave select is active high
ARM GAS  C:\Users\Steven\AppData\Local\Temp\ccCdlLee.s 			page 9


 286:.\Generated_Source\PSoC4/SPI_1_SPI.c ****     *
 287:.\Generated_Source\PSoC4/SPI_1_SPI.c ****     * Return:
 288:.\Generated_Source\PSoC4/SPI_1_SPI.c ****     *  None
 289:.\Generated_Source\PSoC4/SPI_1_SPI.c ****     *
 290:.\Generated_Source\PSoC4/SPI_1_SPI.c ****     *******************************************************************************/
 291:.\Generated_Source\PSoC4/SPI_1_SPI.c ****     void SPI_1_SpiSetSlaveSelectPolarity(uint32 slaveSelect, uint32 polarity)
 292:.\Generated_Source\PSoC4/SPI_1_SPI.c ****     {
 172              		.loc 1 292 0
 173              		.cfi_startproc
 174 0000 80B5     		push	{r7, lr}
 175              		.cfi_def_cfa_offset 8
 176              		.cfi_offset 7, -8
 177              		.cfi_offset 14, -4
 178 0002 84B0     		sub	sp, sp, #16
 179              		.cfi_def_cfa_offset 24
 180 0004 00AF     		add	r7, sp, #0
 181              		.cfi_def_cfa_register 7
 182 0006 7860     		str	r0, [r7, #4]
 183 0008 3960     		str	r1, [r7]
 293:.\Generated_Source\PSoC4/SPI_1_SPI.c ****         uint32 ssPolarity;
 294:.\Generated_Source\PSoC4/SPI_1_SPI.c **** 
 295:.\Generated_Source\PSoC4/SPI_1_SPI.c ****         /* Get position of the polarity bit associated with slave select line */
 296:.\Generated_Source\PSoC4/SPI_1_SPI.c ****         ssPolarity = SPI_1_GET_SPI_CTRL_SSEL_POLARITY((uint32) 1u << slaveSelect);
 184              		.loc 1 296 0
 185 000a 7B68     		ldr	r3, [r7, #4]
 186 000c 0122     		mov	r2, #1
 187 000e 111C     		mov	r1, r2
 188 0010 9940     		lsl	r1, r1, r3
 189 0012 0B1C     		mov	r3, r1
 190 0014 1A02     		lsl	r2, r3, #8
 191 0016 F023     		mov	r3, #240
 192 0018 1B01     		lsl	r3, r3, #4
 193 001a 1340     		and	r3, r2
 194 001c FB60     		str	r3, [r7, #12]
 297:.\Generated_Source\PSoC4/SPI_1_SPI.c **** 
 298:.\Generated_Source\PSoC4/SPI_1_SPI.c ****         if (0u != polarity)
 195              		.loc 1 298 0
 196 001e 3B68     		ldr	r3, [r7]
 197 0020 002B     		cmp	r3, #0
 198 0022 06D0     		beq	.L8
 299:.\Generated_Source\PSoC4/SPI_1_SPI.c ****         {
 300:.\Generated_Source\PSoC4/SPI_1_SPI.c ****             SPI_1_SPI_CTRL_REG |= (uint32)  ssPolarity;
 199              		.loc 1 300 0
 200 0024 084B     		ldr	r3, .L10
 201 0026 084A     		ldr	r2, .L10
 202 0028 1168     		ldr	r1, [r2]
 203 002a FA68     		ldr	r2, [r7, #12]
 204 002c 0A43     		orr	r2, r1
 205 002e 1A60     		str	r2, [r3]
 206 0030 06E0     		b	.L7
 207              	.L8:
 301:.\Generated_Source\PSoC4/SPI_1_SPI.c ****         }
 302:.\Generated_Source\PSoC4/SPI_1_SPI.c ****         else
 303:.\Generated_Source\PSoC4/SPI_1_SPI.c ****         {
 304:.\Generated_Source\PSoC4/SPI_1_SPI.c ****             SPI_1_SPI_CTRL_REG &= (uint32) ~ssPolarity;
 208              		.loc 1 304 0
 209 0032 054B     		ldr	r3, .L10
ARM GAS  C:\Users\Steven\AppData\Local\Temp\ccCdlLee.s 			page 10


 210 0034 044A     		ldr	r2, .L10
 211 0036 1268     		ldr	r2, [r2]
 212 0038 F968     		ldr	r1, [r7, #12]
 213 003a C943     		mvn	r1, r1
 214 003c 0A40     		and	r2, r1
 215 003e 1A60     		str	r2, [r3]
 216              	.L7:
 305:.\Generated_Source\PSoC4/SPI_1_SPI.c ****         }
 306:.\Generated_Source\PSoC4/SPI_1_SPI.c ****     }
 217              		.loc 1 306 0
 218 0040 BD46     		mov	sp, r7
 219 0042 04B0     		add	sp, sp, #16
 220              		@ sp needed
 221 0044 80BD     		pop	{r7, pc}
 222              	.L11:
 223 0046 C046     		.align	2
 224              	.L10:
 225 0048 20002540 		.word	1076166688
 226              		.cfi_endproc
 227              	.LFE4:
 228              		.size	SPI_1_SpiSetSlaveSelectPolarity, .-SPI_1_SpiSetSlaveSelectPolarity
 229              		.text
 230              	.Letext0:
 231              		.file 2 ".\\Generated_Source\\PSoC4/cytypes.h"